ARM GAS  C:\Users\statm\AppData\Local\Temp\ccceTS3e.s 			page 1


   1              		.syntax unified
   2              		.cpu cortex-m0
   3              		.fpu softvfp
   4              		.eabi_attribute 20, 1
   5              		.eabi_attribute 21, 1
   6              		.eabi_attribute 23, 3
   7              		.eabi_attribute 24, 1
   8              		.eabi_attribute 25, 1
   9              		.eabi_attribute 26, 1
  10              		.eabi_attribute 30, 1
  11              		.eabi_attribute 34, 0
  12              		.eabi_attribute 18, 4
  13              		.thumb
  14              		.syntax unified
  15              		.file	"main.c"
  16              		.text
  17              	.Ltext0:
  18              		.cfi_sections	.debug_frame
  19              		.section	.text.HC595_sendByte,"ax",%progbits
  20              		.align	2
  21              		.global	HC595_sendByte
  22              		.code	16
  23              		.thumb_func
  24              		.type	HC595_sendByte, %function
  25              	HC595_sendByte:
  26              	.LFB32:
  27              		.file 1 "main.c"
   1:main.c        **** #include "project.h"
   2:main.c        **** #include <stdbool.h>
   3:main.c        **** #include <stdint.h>
   4:main.c        **** #include <string.h>
   5:main.c        **** 
   6:main.c        **** #define ROWS 4
   7:main.c        **** #define COLS 3
   8:main.c        **** #define DISPLAY_SIZE 8
   9:main.c        **** #define BLANK 0xFF
  10:main.c        **** 
  11:main.c        **** const uint8_t ascii_font[128] = {
  12:main.c        ****     ['0']=0xC0, ['1']=0xF9, ['2']=0xA4, ['3']=0xB0,
  13:main.c        ****     ['4']=0x99, ['5']=0x92, ['6']=0x82, ['7']=0xF8,
  14:main.c        ****     ['8']=0x80, ['9']=0x90, ['P']=0x8C, ['O']=0xC0, 
  15:main.c        ****     ['E']=0x86, ['N']=0xAB, ['-']=0xBF, [' ']=0xFF, ['_']=0xF7
  16:main.c        **** };
  17:main.c        **** 
  18:main.c        **** typedef enum {
  19:main.c        ****     STATE_LOCKED,
  20:main.c        ****     STATE_PENALTY,
  21:main.c        ****     STATE_OPEN_ANIM,
  22:main.c        ****     STATE_STOPWATCH,
  23:main.c        ****     STATE_MEMO
  24:main.c        **** } safe_state_t;
  25:main.c        **** 
  26:main.c        **** volatile uint8_t display_data[DISPLAY_SIZE] = {BLANK, BLANK, BLANK, BLANK, BLANK, BLANK, BLANK, BLA
  27:main.c        **** volatile uint32_t system_tick_ms = 0;
  28:main.c        **** 
  29:main.c        **** static const char key_map[ROWS][COLS] = {
  30:main.c        ****     {'1','2','3'}, {'4','5','6'}, {'7','8','9'}, {'*','0','#'}
ARM GAS  C:\Users\statm\AppData\Local\Temp\ccceTS3e.s 			page 2


  31:main.c        **** };
  32:main.c        **** static uint8_t last_keys[ROWS][COLS];
  33:main.c        **** 
  34:main.c        **** void HC595_sendByte(uint8_t data) {
  28              		.loc 1 34 0
  29              		.cfi_startproc
  30              		@ args = 0, pretend = 0, frame = 0
  31              		@ frame_needed = 0, uses_anonymous_args = 0
  32              	.LVL0:
  33 0000 70B5     		push	{r4, r5, r6, lr}
  34              		.cfi_def_cfa_offset 16
  35              		.cfi_offset 4, -16
  36              		.cfi_offset 5, -12
  37              		.cfi_offset 6, -8
  38              		.cfi_offset 14, -4
  39 0002 0500     		movs	r5, r0
  40              	.LVL1:
  41              	.LBB2:
  35:main.c        ****     for(uint8_t i = 0; i < 8; i++) {
  42              		.loc 1 35 0
  43 0004 0024     		movs	r4, #0
  44 0006 0FE0     		b	.L2
  45              	.LVL2:
  46              	.L3:
  36:main.c        ****         Pin_DO_Write((data & (0x80 >> i)) ? 1 : 0);
  47              		.loc 1 36 0 discriminator 3
  48 0008 8020     		movs	r0, #128
  49 000a 2041     		asrs	r0, r0, r4
  50 000c 2840     		ands	r0, r5
  51 000e 431E     		subs	r3, r0, #1
  52 0010 9841     		sbcs	r0, r0, r3
  53 0012 C0B2     		uxtb	r0, r0
  54 0014 FFF7FEFF 		bl	Pin_DO_Write
  55              	.LVL3:
  37:main.c        ****         Pin_CLK_Write(1);
  56              		.loc 1 37 0 discriminator 3
  57 0018 0120     		movs	r0, #1
  58 001a FFF7FEFF 		bl	Pin_CLK_Write
  59              	.LVL4:
  38:main.c        ****         Pin_CLK_Write(0);
  60              		.loc 1 38 0 discriminator 3
  61 001e 0020     		movs	r0, #0
  62 0020 FFF7FEFF 		bl	Pin_CLK_Write
  63              	.LVL5:
  35:main.c        ****         Pin_DO_Write((data & (0x80 >> i)) ? 1 : 0);
  64              		.loc 1 35 0 discriminator 3
  65 0024 0134     		adds	r4, r4, #1
  66              	.LVL6:
  67 0026 E4B2     		uxtb	r4, r4
  68              	.LVL7:
  69              	.L2:
  35:main.c        ****         Pin_DO_Write((data & (0x80 >> i)) ? 1 : 0);
  70              		.loc 1 35 0 is_stmt 0 discriminator 1
  71 0028 072C     		cmp	r4, #7
  72 002a EDD9     		bls	.L3
  73              	.LBE2:
  39:main.c        ****     }
ARM GAS  C:\Users\statm\AppData\Local\Temp\ccceTS3e.s 			page 3


  40:main.c        **** }
  74              		.loc 1 40 0 is_stmt 1
  75              		@ sp needed
  76              	.LVL8:
  77 002c 70BD     		pop	{r4, r5, r6, pc}
  78              		.cfi_endproc
  79              	.LFE32:
  80              		.size	HC595_sendByte, .-HC595_sendByte
  81 002e C046     		.section	.text.Timer_Int_Handler,"ax",%progbits
  82              		.align	2
  83              		.global	Timer_Int_Handler
  84              		.code	16
  85              		.thumb_func
  86              		.type	Timer_Int_Handler, %function
  87              	Timer_Int_Handler:
  88              	.LFB33:
  41:main.c        **** 
  42:main.c        **** CY_ISR(Timer_Int_Handler) {
  89              		.loc 1 42 0
  90              		.cfi_startproc
  91              		@ args = 0, pretend = 0, frame = 0
  92              		@ frame_needed = 0, uses_anonymous_args = 0
  93 0000 10B5     		push	{r4, lr}
  94              		.cfi_def_cfa_offset 8
  95              		.cfi_offset 4, -8
  96              		.cfi_offset 14, -4
  43:main.c        ****     static uint8_t digit_idx = 0;
  44:main.c        ****     HC595_sendByte((uint8_t)~(1u << digit_idx));
  97              		.loc 1 44 0
  98 0002 114C     		ldr	r4, .L6
  99 0004 2378     		ldrb	r3, [r4]
 100 0006 0120     		movs	r0, #1
 101 0008 9840     		lsls	r0, r0, r3
 102 000a C043     		mvns	r0, r0
 103 000c C0B2     		uxtb	r0, r0
 104 000e FFF7FEFF 		bl	HC595_sendByte
 105              	.LVL9:
  45:main.c        ****     HC595_sendByte(display_data[digit_idx]);
 106              		.loc 1 45 0
 107 0012 2378     		ldrb	r3, [r4]
 108 0014 0D4A     		ldr	r2, .L6+4
 109 0016 D05C     		ldrb	r0, [r2, r3]
 110 0018 C0B2     		uxtb	r0, r0
 111 001a FFF7FEFF 		bl	HC595_sendByte
 112              	.LVL10:
  46:main.c        ****     Pin_Latch_Write(1);
 113              		.loc 1 46 0
 114 001e 0120     		movs	r0, #1
 115 0020 FFF7FEFF 		bl	Pin_Latch_Write
 116              	.LVL11:
  47:main.c        ****     Pin_Latch_Write(0);
 117              		.loc 1 47 0
 118 0024 0020     		movs	r0, #0
 119 0026 FFF7FEFF 		bl	Pin_Latch_Write
 120              	.LVL12:
  48:main.c        ****     
  49:main.c        ****     digit_idx++;
ARM GAS  C:\Users\statm\AppData\Local\Temp\ccceTS3e.s 			page 4


 121              		.loc 1 49 0
 122 002a 2378     		ldrb	r3, [r4]
 123 002c 0133     		adds	r3, r3, #1
 124 002e DBB2     		uxtb	r3, r3
 125 0030 2370     		strb	r3, [r4]
  50:main.c        ****     if(digit_idx >= DISPLAY_SIZE) digit_idx = 0;
 126              		.loc 1 50 0
 127 0032 072B     		cmp	r3, #7
 128 0034 02D9     		bls	.L5
 129              		.loc 1 50 0 is_stmt 0 discriminator 1
 130 0036 0022     		movs	r2, #0
 131 0038 034B     		ldr	r3, .L6
 132 003a 1A70     		strb	r2, [r3]
 133              	.L5:
  51:main.c        ****     system_tick_ms++;
 134              		.loc 1 51 0 is_stmt 1
 135 003c 024A     		ldr	r2, .L6
 136 003e 5368     		ldr	r3, [r2, #4]
 137 0040 0133     		adds	r3, r3, #1
 138 0042 5360     		str	r3, [r2, #4]
  52:main.c        **** }
 139              		.loc 1 52 0
 140              		@ sp needed
 141 0044 10BD     		pop	{r4, pc}
 142              	.L7:
 143 0046 C046     		.align	2
 144              	.L6:
 145 0048 00000000 		.word	.LANCHOR0
 146 004c 00000000 		.word	.LANCHOR1
 147              		.cfi_endproc
 148              	.LFE33:
 149              		.size	Timer_Int_Handler, .-Timer_Int_Handler
 150              		.section	.text.rgb_set,"ax",%progbits
 151              		.align	2
 152              		.global	rgb_set
 153              		.code	16
 154              		.thumb_func
 155              		.type	rgb_set, %function
 156              	rgb_set:
 157              	.LFB34:
  53:main.c        **** 
  54:main.c        **** void rgb_set(uint8_t r, uint8_t g, uint8_t b) {
 158              		.loc 1 54 0
 159              		.cfi_startproc
 160              		@ args = 0, pretend = 0, frame = 0
 161              		@ frame_needed = 0, uses_anonymous_args = 0
 162              	.LVL13:
 163 0000 70B5     		push	{r4, r5, r6, lr}
 164              		.cfi_def_cfa_offset 16
 165              		.cfi_offset 4, -16
 166              		.cfi_offset 5, -12
 167              		.cfi_offset 6, -8
 168              		.cfi_offset 14, -4
 169 0002 0D00     		movs	r5, r1
 170 0004 1400     		movs	r4, r2
  55:main.c        ****     LED_R_Write(r); LED_G_Write(g); LED_B_Write(b);
 171              		.loc 1 55 0
ARM GAS  C:\Users\statm\AppData\Local\Temp\ccceTS3e.s 			page 5


 172 0006 FFF7FEFF 		bl	LED_R_Write
 173              	.LVL14:
 174 000a 2800     		movs	r0, r5
 175 000c FFF7FEFF 		bl	LED_G_Write
 176              	.LVL15:
 177 0010 2000     		movs	r0, r4
 178 0012 FFF7FEFF 		bl	LED_B_Write
 179              	.LVL16:
  56:main.c        **** }
 180              		.loc 1 56 0
 181              		@ sp needed
 182 0016 70BD     		pop	{r4, r5, r6, pc}
 183              		.cfi_endproc
 184              	.LFE34:
 185              		.size	rgb_set, .-rgb_set
 186              		.section	.text.clear_display,"ax",%progbits
 187              		.align	2
 188              		.global	clear_display
 189              		.code	16
 190              		.thumb_func
 191              		.type	clear_display, %function
 192              	clear_display:
 193              	.LFB35:
  57:main.c        **** 
  58:main.c        **** void clear_display(void) {
 194              		.loc 1 58 0
 195              		.cfi_startproc
 196              		@ args = 0, pretend = 0, frame = 0
 197              		@ frame_needed = 0, uses_anonymous_args = 0
 198              		@ link register save eliminated.
 199              	.LVL17:
 200              	.LBB3:
  59:main.c        ****     for(uint8_t i = 0; i < DISPLAY_SIZE; i++) display_data[i] = BLANK;
 201              		.loc 1 59 0
 202 0000 0023     		movs	r3, #0
 203 0002 04E0     		b	.L10
 204              	.LVL18:
 205              	.L11:
 206              		.loc 1 59 0 is_stmt 0 discriminator 3
 207 0004 FF21     		movs	r1, #255
 208 0006 034A     		ldr	r2, .L12
 209 0008 D154     		strb	r1, [r2, r3]
 210 000a 0133     		adds	r3, r3, #1
 211              	.LVL19:
 212 000c DBB2     		uxtb	r3, r3
 213              	.LVL20:
 214              	.L10:
 215              		.loc 1 59 0 discriminator 1
 216 000e 072B     		cmp	r3, #7
 217 0010 F8D9     		bls	.L11
 218              	.LBE3:
  60:main.c        **** }
 219              		.loc 1 60 0 is_stmt 1
 220              		@ sp needed
 221 0012 7047     		bx	lr
 222              	.L13:
 223              		.align	2
ARM GAS  C:\Users\statm\AppData\Local\Temp\ccceTS3e.s 			page 6


 224              	.L12:
 225 0014 00000000 		.word	.LANCHOR1
 226              		.cfi_endproc
 227              	.LFE35:
 228              		.size	clear_display, .-clear_display
 229              		.section	.text.matrix_init,"ax",%progbits
 230              		.align	2
 231              		.global	matrix_init
 232              		.code	16
 233              		.thumb_func
 234              		.type	matrix_init, %function
 235              	matrix_init:
 236              	.LFB36:
  61:main.c        **** 
  62:main.c        **** void matrix_init(void) {
 237              		.loc 1 62 0
 238              		.cfi_startproc
 239              		@ args = 0, pretend = 0, frame = 0
 240              		@ frame_needed = 0, uses_anonymous_args = 0
 241 0000 10B5     		push	{r4, lr}
 242              		.cfi_def_cfa_offset 8
 243              		.cfi_offset 4, -8
 244              		.cfi_offset 14, -4
  63:main.c        ****     COLUMN_0_SetDriveMode(COLUMN_0_DM_DIG_HIZ);
 245              		.loc 1 63 0
 246 0002 0120     		movs	r0, #1
 247 0004 FFF7FEFF 		bl	COLUMN_0_SetDriveMode
 248              	.LVL21:
  64:main.c        ****     COLUMN_1_SetDriveMode(COLUMN_1_DM_DIG_HIZ);
 249              		.loc 1 64 0
 250 0008 0120     		movs	r0, #1
 251 000a FFF7FEFF 		bl	COLUMN_1_SetDriveMode
 252              	.LVL22:
  65:main.c        ****     COLUMN_2_SetDriveMode(COLUMN_2_DM_DIG_HIZ);
 253              		.loc 1 65 0
 254 000e 0120     		movs	r0, #1
 255 0010 FFF7FEFF 		bl	COLUMN_2_SetDriveMode
 256              	.LVL23:
 257              	.LBB4:
  66:main.c        ****     for(uint8_t r = 0; r < ROWS; r++) {
 258              		.loc 1 66 0
 259 0014 0021     		movs	r1, #0
 260 0016 0EE0     		b	.L15
 261              	.LVL24:
 262              	.L16:
 263              	.LBB5:
  67:main.c        ****         for(uint8_t c = 0; c < COLS; c++) last_keys[r][c] = 1;
 264              		.loc 1 67 0 discriminator 3
 265 0018 4B00     		lsls	r3, r1, #1
 266 001a 5B18     		adds	r3, r3, r1
 267 001c 0748     		ldr	r0, .L19
 268 001e C318     		adds	r3, r0, r3
 269 0020 9B18     		adds	r3, r3, r2
 270 0022 0120     		movs	r0, #1
 271 0024 1872     		strb	r0, [r3, #8]
 272 0026 0132     		adds	r2, r2, #1
 273              	.LVL25:
ARM GAS  C:\Users\statm\AppData\Local\Temp\ccceTS3e.s 			page 7


 274 0028 D2B2     		uxtb	r2, r2
 275              	.LVL26:
 276 002a 00E0     		b	.L17
 277              	.LVL27:
 278              	.L18:
 279              	.LBE5:
 280 002c 0022     		movs	r2, #0
 281              	.L17:
 282              	.LVL28:
 283              	.LBB6:
 284              		.loc 1 67 0 is_stmt 0 discriminator 1
 285 002e 022A     		cmp	r2, #2
 286 0030 F2D9     		bls	.L16
 287              	.LBE6:
  66:main.c        ****     for(uint8_t r = 0; r < ROWS; r++) {
 288              		.loc 1 66 0 is_stmt 1 discriminator 2
 289 0032 0131     		adds	r1, r1, #1
 290              	.LVL29:
 291 0034 C9B2     		uxtb	r1, r1
 292              	.LVL30:
 293              	.L15:
  66:main.c        ****     for(uint8_t r = 0; r < ROWS; r++) {
 294              		.loc 1 66 0 is_stmt 0 discriminator 1
 295 0036 0329     		cmp	r1, #3
 296 0038 F8D9     		bls	.L18
 297              	.LBE4:
  68:main.c        ****     }
  69:main.c        **** }
 298              		.loc 1 69 0 is_stmt 1
 299              		@ sp needed
 300 003a 10BD     		pop	{r4, pc}
 301              	.L20:
 302              		.align	2
 303              	.L19:
 304 003c 00000000 		.word	.LANCHOR0
 305              		.cfi_endproc
 306              	.LFE36:
 307              		.size	matrix_init, .-matrix_init
 308              		.section	.text.get_key,"ax",%progbits
 309              		.align	2
 310              		.global	get_key
 311              		.code	16
 312              		.thumb_func
 313              		.type	get_key, %function
 314              	get_key:
 315              	.LFB37:
  70:main.c        **** 
  71:main.c        **** char get_key(void) {
 316              		.loc 1 71 0
 317              		.cfi_startproc
 318              		@ args = 0, pretend = 0, frame = 8
 319              		@ frame_needed = 0, uses_anonymous_args = 0
 320 0000 70B5     		push	{r4, r5, r6, lr}
 321              		.cfi_def_cfa_offset 16
 322              		.cfi_offset 4, -16
 323              		.cfi_offset 5, -12
 324              		.cfi_offset 6, -8
ARM GAS  C:\Users\statm\AppData\Local\Temp\ccceTS3e.s 			page 8


 325              		.cfi_offset 14, -4
 326 0002 82B0     		sub	sp, sp, #8
 327              		.cfi_def_cfa_offset 24
 328              	.LVL31:
 329              	.LBB7:
  72:main.c        ****     char pressed = 0;
  73:main.c        ****     for(uint8_t c = 0; c < COLS; c++) {
 330              		.loc 1 73 0
 331 0004 0024     		movs	r4, #0
 332              	.LBE7:
  72:main.c        ****     char pressed = 0;
 333              		.loc 1 72 0
 334 0006 0025     		movs	r5, #0
 335              	.LBB10:
 336              		.loc 1 73 0
 337 0008 63E0     		b	.L22
 338              	.LVL32:
 339              	.L32:
 340              	.LBB8:
  74:main.c        ****         if(c==0) { COLUMN_0_SetDriveMode(COLUMN_0_DM_STRONG); COLUMN_0_Write(0); }
 341              		.loc 1 74 0
 342 000a 002C     		cmp	r4, #0
 343 000c 06D1     		bne	.L23
 344              		.loc 1 74 0 is_stmt 0 discriminator 1
 345 000e 0620     		movs	r0, #6
 346 0010 FFF7FEFF 		bl	COLUMN_0_SetDriveMode
 347              	.LVL33:
 348 0014 0020     		movs	r0, #0
 349 0016 FFF7FEFF 		bl	COLUMN_0_Write
 350              	.LVL34:
 351 001a 10E0     		b	.L24
 352              	.L23:
  75:main.c        ****         else if(c==1) { COLUMN_1_SetDriveMode(COLUMN_1_DM_STRONG); COLUMN_1_Write(0); }
 353              		.loc 1 75 0 is_stmt 1
 354 001c 012C     		cmp	r4, #1
 355 001e 06D1     		bne	.L25
 356              		.loc 1 75 0 is_stmt 0 discriminator 1
 357 0020 0620     		movs	r0, #6
 358 0022 FFF7FEFF 		bl	COLUMN_1_SetDriveMode
 359              	.LVL35:
 360 0026 0020     		movs	r0, #0
 361 0028 FFF7FEFF 		bl	COLUMN_1_Write
 362              	.LVL36:
 363 002c 07E0     		b	.L24
 364              	.L25:
  76:main.c        ****         else if(c==2) { COLUMN_2_SetDriveMode(COLUMN_2_DM_STRONG); COLUMN_2_Write(0); }
 365              		.loc 1 76 0 is_stmt 1
 366 002e 022C     		cmp	r4, #2
 367 0030 05D1     		bne	.L24
 368              		.loc 1 76 0 is_stmt 0 discriminator 1
 369 0032 0620     		movs	r0, #6
 370 0034 FFF7FEFF 		bl	COLUMN_2_SetDriveMode
 371              	.LVL37:
 372 0038 0020     		movs	r0, #0
 373 003a FFF7FEFF 		bl	COLUMN_2_Write
 374              	.LVL38:
 375              	.L24:
ARM GAS  C:\Users\statm\AppData\Local\Temp\ccceTS3e.s 			page 9


  77:main.c        ****         
  78:main.c        ****         CyDelayUs(20);
 376              		.loc 1 78 0 is_stmt 1
 377 003e 1420     		movs	r0, #20
 378 0040 FFF7FEFF 		bl	CyDelayUs
 379              	.LVL39:
  79:main.c        ****         uint8_t rows[ROWS] = {ROW_0_Read(), ROW_1_Read(), ROW_2_Read(), ROW_3_Read()};
 380              		.loc 1 79 0
 381 0044 FFF7FEFF 		bl	ROW_0_Read
 382              	.LVL40:
 383 0048 01AE     		add	r6, sp, #4
 384 004a 3070     		strb	r0, [r6]
 385 004c FFF7FEFF 		bl	ROW_1_Read
 386              	.LVL41:
 387 0050 7070     		strb	r0, [r6, #1]
 388 0052 FFF7FEFF 		bl	ROW_2_Read
 389              	.LVL42:
 390 0056 B070     		strb	r0, [r6, #2]
 391 0058 FFF7FEFF 		bl	ROW_3_Read
 392              	.LVL43:
 393 005c F070     		strb	r0, [r6, #3]
 394              	.LVL44:
 395              	.LBB9:
  80:main.c        ****         
  81:main.c        ****         for(uint8_t r = 0; r < ROWS; r++) {
 396              		.loc 1 81 0
 397 005e 0022     		movs	r2, #0
 398 0060 19E0     		b	.L26
 399              	.LVL45:
 400              	.L28:
  82:main.c        ****             if((rows[r] == 0) && (last_keys[r][c] == 1)) pressed = key_map[r][c];
 401              		.loc 1 82 0
 402 0062 1300     		movs	r3, r2
 403 0064 01A9     		add	r1, sp, #4
 404 0066 885C     		ldrb	r0, [r1, r2]
 405 0068 0028     		cmp	r0, #0
 406 006a 0CD1     		bne	.L27
 407              		.loc 1 82 0 is_stmt 0 discriminator 1
 408 006c 5100     		lsls	r1, r2, #1
 409 006e 8918     		adds	r1, r1, r2
 410 0070 1A4E     		ldr	r6, .L33
 411 0072 7118     		adds	r1, r6, r1
 412 0074 0919     		adds	r1, r1, r4
 413 0076 097A     		ldrb	r1, [r1, #8]
 414 0078 0129     		cmp	r1, #1
 415 007a 04D1     		bne	.L27
 416              		.loc 1 82 0 discriminator 2
 417 007c 5100     		lsls	r1, r2, #1
 418 007e 8918     		adds	r1, r1, r2
 419 0080 174D     		ldr	r5, .L33+4
 420              	.LVL46:
 421 0082 6918     		adds	r1, r5, r1
 422 0084 0D5D     		ldrb	r5, [r1, r4]
 423              	.LVL47:
 424              	.L27:
  83:main.c        ****             last_keys[r][c] = rows[r];
 425              		.loc 1 83 0 is_stmt 1 discriminator 2
ARM GAS  C:\Users\statm\AppData\Local\Temp\ccceTS3e.s 			page 10


 426 0086 5900     		lsls	r1, r3, #1
 427 0088 CB18     		adds	r3, r1, r3
 428 008a 1449     		ldr	r1, .L33
 429 008c CB18     		adds	r3, r1, r3
 430 008e 1B19     		adds	r3, r3, r4
 431 0090 1872     		strb	r0, [r3, #8]
  81:main.c        ****             if((rows[r] == 0) && (last_keys[r][c] == 1)) pressed = key_map[r][c];
 432              		.loc 1 81 0 discriminator 2
 433 0092 0132     		adds	r2, r2, #1
 434              	.LVL48:
 435 0094 D2B2     		uxtb	r2, r2
 436              	.LVL49:
 437              	.L26:
  81:main.c        ****             if((rows[r] == 0) && (last_keys[r][c] == 1)) pressed = key_map[r][c];
 438              		.loc 1 81 0 is_stmt 0 discriminator 1
 439 0096 032A     		cmp	r2, #3
 440 0098 E3D9     		bls	.L28
 441              	.LBE9:
  84:main.c        ****         }
  85:main.c        ****         
  86:main.c        ****         if(c==0) { COLUMN_0_Write(1); COLUMN_0_SetDriveMode(COLUMN_0_DM_DIG_HIZ); }
 442              		.loc 1 86 0 is_stmt 1
 443 009a 002C     		cmp	r4, #0
 444 009c 06D1     		bne	.L29
 445              		.loc 1 86 0 is_stmt 0 discriminator 1
 446 009e 0120     		movs	r0, #1
 447 00a0 FFF7FEFF 		bl	COLUMN_0_Write
 448              	.LVL50:
 449 00a4 0120     		movs	r0, #1
 450 00a6 FFF7FEFF 		bl	COLUMN_0_SetDriveMode
 451              	.LVL51:
 452 00aa 10E0     		b	.L30
 453              	.LVL52:
 454              	.L29:
  87:main.c        ****         else if(c==1) { COLUMN_1_Write(1); COLUMN_1_SetDriveMode(COLUMN_1_DM_DIG_HIZ); }
 455              		.loc 1 87 0 is_stmt 1
 456 00ac 012C     		cmp	r4, #1
 457 00ae 06D1     		bne	.L31
 458              		.loc 1 87 0 is_stmt 0 discriminator 1
 459 00b0 0120     		movs	r0, #1
 460 00b2 FFF7FEFF 		bl	COLUMN_1_Write
 461              	.LVL53:
 462 00b6 0120     		movs	r0, #1
 463 00b8 FFF7FEFF 		bl	COLUMN_1_SetDriveMode
 464              	.LVL54:
 465 00bc 07E0     		b	.L30
 466              	.LVL55:
 467              	.L31:
  88:main.c        ****         else if(c==2) { COLUMN_2_Write(1); COLUMN_2_SetDriveMode(COLUMN_2_DM_DIG_HIZ); }
 468              		.loc 1 88 0 is_stmt 1
 469 00be 022C     		cmp	r4, #2
 470 00c0 05D1     		bne	.L30
 471              		.loc 1 88 0 is_stmt 0 discriminator 1
 472 00c2 0120     		movs	r0, #1
 473 00c4 FFF7FEFF 		bl	COLUMN_2_Write
 474              	.LVL56:
 475 00c8 0120     		movs	r0, #1
ARM GAS  C:\Users\statm\AppData\Local\Temp\ccceTS3e.s 			page 11


 476 00ca FFF7FEFF 		bl	COLUMN_2_SetDriveMode
 477              	.LVL57:
 478              	.L30:
 479              	.LBE8:
  73:main.c        ****         if(c==0) { COLUMN_0_SetDriveMode(COLUMN_0_DM_STRONG); COLUMN_0_Write(0); }
 480              		.loc 1 73 0 is_stmt 1 discriminator 2
 481 00ce 0134     		adds	r4, r4, #1
 482              	.LVL58:
 483 00d0 E4B2     		uxtb	r4, r4
 484              	.LVL59:
 485              	.L22:
  73:main.c        ****         if(c==0) { COLUMN_0_SetDriveMode(COLUMN_0_DM_STRONG); COLUMN_0_Write(0); }
 486              		.loc 1 73 0 is_stmt 0 discriminator 1
 487 00d2 022C     		cmp	r4, #2
 488 00d4 99D9     		bls	.L32
 489              	.LBE10:
  89:main.c        ****     }
  90:main.c        ****     return pressed;
  91:main.c        **** }
 490              		.loc 1 91 0 is_stmt 1
 491 00d6 2800     		movs	r0, r5
 492 00d8 02B0     		add	sp, sp, #8
 493              		@ sp needed
 494              	.LVL60:
 495              	.LVL61:
 496 00da 70BD     		pop	{r4, r5, r6, pc}
 497              	.L34:
 498              		.align	2
 499              	.L33:
 500 00dc 00000000 		.word	.LANCHOR0
 501 00e0 14000000 		.word	.LANCHOR2
 502              		.cfi_endproc
 503              	.LFE37:
 504              		.size	get_key, .-get_key
 505              		.global	__aeabi_uidiv
 506              		.global	__aeabi_uidivmod
 507              		.section	.text.main,"ax",%progbits
 508              		.align	2
 509              		.global	main
 510              		.code	16
 511              		.thumb_func
 512              		.type	main, %function
 513              	main:
 514              	.LFB38:
  92:main.c        **** 
  93:main.c        **** int main(void) {
 515              		.loc 1 93 0
 516              		.cfi_startproc
 517              		@ args = 0, pretend = 0, frame = 16
 518              		@ frame_needed = 0, uses_anonymous_args = 0
 519 0000 F0B5     		push	{r4, r5, r6, r7, lr}
 520              		.cfi_def_cfa_offset 20
 521              		.cfi_offset 4, -20
 522              		.cfi_offset 5, -16
 523              		.cfi_offset 6, -12
 524              		.cfi_offset 7, -8
 525              		.cfi_offset 14, -4
ARM GAS  C:\Users\statm\AppData\Local\Temp\ccceTS3e.s 			page 12


 526 0002 5F46     		mov	r7, fp
 527 0004 5646     		mov	r6, r10
 528 0006 4D46     		mov	r5, r9
 529 0008 4446     		mov	r4, r8
 530 000a F0B4     		push	{r4, r5, r6, r7}
 531              		.cfi_def_cfa_offset 36
 532              		.cfi_offset 8, -36
 533              		.cfi_offset 9, -32
 534              		.cfi_offset 10, -28
 535              		.cfi_offset 11, -24
 536 000c 85B0     		sub	sp, sp, #20
 537              		.cfi_def_cfa_offset 56
  94:main.c        ****     CyGlobalIntEnable;
 538              		.loc 1 94 0
 539              		.syntax divided
 540              	@ 94 "main.c" 1
 541 000e 62B6     		CPSIE   i
 542              	@ 0 "" 2
  95:main.c        ****     Timer_Start();
 543              		.loc 1 95 0
 544              		.thumb
 545              		.syntax unified
 546 0010 FFF7FEFF 		bl	Timer_Start
 547              	.LVL62:
  96:main.c        ****     Timer_Int_StartEx(Timer_Int_Handler);
 548              		.loc 1 96 0
 549 0014 C548     		ldr	r0, .L71
 550 0016 FFF7FEFF 		bl	Timer_Int_StartEx
 551              	.LVL63:
  97:main.c        ****     matrix_init();
 552              		.loc 1 97 0
 553 001a FFF7FEFF 		bl	matrix_init
 554              	.LVL64:
  98:main.c        ****     
  99:main.c        ****     safe_state_t current_state = STATE_LOCKED;
 100:main.c        ****     
 101:main.c        ****     uint32_t last_action_ms = 0;
 102:main.c        ****     uint32_t action_timer_ms = 0;
 103:main.c        ****     
 104:main.c        ****     char pin_buf[5] = {0};
 555              		.loc 1 104 0
 556 001e 0522     		movs	r2, #5
 557 0020 0021     		movs	r1, #0
 558 0022 02A8     		add	r0, sp, #8
 559 0024 FFF7FEFF 		bl	memset
 560              	.LVL65:
 105:main.c        ****     uint8_t input_idx = 0;
 106:main.c        ****     uint8_t scroll_step = 0;
 107:main.c        ****     bool is_scrolling = false;
 108:main.c        **** 
 109:main.c        ****     rgb_set(1, 1, 1);
 561              		.loc 1 109 0
 562 0028 0122     		movs	r2, #1
 563 002a 0121     		movs	r1, #1
 564 002c 0120     		movs	r0, #1
 565 002e FFF7FEFF 		bl	rgb_set
 566              	.LVL66:
ARM GAS  C:\Users\statm\AppData\Local\Temp\ccceTS3e.s 			page 13


 107:main.c        **** 
 567              		.loc 1 107 0
 568 0032 0023     		movs	r3, #0
 569 0034 9946     		mov	r9, r3
 106:main.c        ****     bool is_scrolling = false;
 570              		.loc 1 106 0
 571 0036 0026     		movs	r6, #0
 105:main.c        ****     uint8_t input_idx = 0;
 572              		.loc 1 105 0
 573 0038 9846     		mov	r8, r3
 102:main.c        ****     
 574              		.loc 1 102 0
 575 003a 0193     		str	r3, [sp, #4]
 101:main.c        ****     uint32_t action_timer_ms = 0;
 576              		.loc 1 101 0
 577 003c 0027     		movs	r7, #0
  99:main.c        ****     
 578              		.loc 1 99 0
 579 003e 0025     		movs	r5, #0
 580              	.LVL67:
 581              	.L68:
 582              	.LBB11:
 110:main.c        **** 
 111:main.c        ****     for(;;) {
 112:main.c        ****         char key = get_key();
 583              		.loc 1 112 0
 584 0040 FFF7FEFF 		bl	get_key
 585              	.LVL68:
 586 0044 0090     		str	r0, [sp]
 587 0046 0400     		movs	r4, r0
 588              	.LVL69:
 113:main.c        ****         
 114:main.c        ****         if(key == '*') {
 589              		.loc 1 114 0
 590 0048 2A28     		cmp	r0, #42
 591 004a 0ED1     		bne	.L36
 592              	.LVL70:
 115:main.c        ****             current_state = STATE_LOCKED;
 116:main.c        ****             input_idx = 0;
 117:main.c        ****             memset(pin_buf, 0, sizeof(pin_buf));
 593              		.loc 1 117 0
 594 004c 0522     		movs	r2, #5
 595 004e 0021     		movs	r1, #0
 596 0050 02A8     		add	r0, sp, #8
 597 0052 FFF7FEFF 		bl	memset
 598              	.LVL71:
 118:main.c        ****             clear_display();
 599              		.loc 1 118 0
 600 0056 FFF7FEFF 		bl	clear_display
 601              	.LVL72:
 119:main.c        ****             rgb_set(0, 1, 1);
 602              		.loc 1 119 0
 603 005a 0122     		movs	r2, #1
 604 005c 0121     		movs	r1, #1
 605 005e 0020     		movs	r0, #0
 606 0060 FFF7FEFF 		bl	rgb_set
 607              	.LVL73:
ARM GAS  C:\Users\statm\AppData\Local\Temp\ccceTS3e.s 			page 14


 116:main.c        ****             memset(pin_buf, 0, sizeof(pin_buf));
 608              		.loc 1 116 0
 609 0064 0023     		movs	r3, #0
 610 0066 9846     		mov	r8, r3
 115:main.c        ****             input_idx = 0;
 611              		.loc 1 115 0
 612 0068 0025     		movs	r5, #0
 613              	.LVL74:
 614              	.L36:
 120:main.c        ****         }
 121:main.c        **** 
 122:main.c        ****         switch(current_state) {
 615              		.loc 1 122 0
 616 006a 042D     		cmp	r5, #4
 617 006c 00D9     		bls	.LCB559
 618 006e 59E1     		b	.L37	@long jump
 619              	.LCB559:
 620 0070 AB00     		lsls	r3, r5, #2
 621 0072 AF4A     		ldr	r2, .L71+4
 622 0074 D358     		ldr	r3, [r2, r3]
 623 0076 9F46     		mov	pc, r3
 624              		.section	.rodata
 625              		.align	2
 626              	.L39:
 627 0000 78000000 		.word	.L38
 628 0004 04010000 		.word	.L40
 629 0008 78010000 		.word	.L41
 630 000c D0010000 		.word	.L42
 631 0010 86020000 		.word	.L43
 632              		.section	.text.main
 633              	.L38:
 634              	.LBB12:
 123:main.c        ****             
 124:main.c        ****             // ПАРОЛЬ
 125:main.c        ****             case STATE_LOCKED:
 126:main.c        ****                 rgb_set(0, 1, 1);
 635              		.loc 1 126 0
 636 0078 0122     		movs	r2, #1
 637 007a 0121     		movs	r1, #1
 638 007c 0020     		movs	r0, #0
 639 007e FFF7FEFF 		bl	rgb_set
 640              	.LVL75:
 127:main.c        ****                 clear_display();
 641              		.loc 1 127 0
 642 0082 FFF7FEFF 		bl	clear_display
 643              	.LVL76:
 644              	.LBB13:
 128:main.c        ****                 
 129:main.c        ****                 for(uint8_t i = 0; i < 4; i++) {
 645              		.loc 1 129 0
 646 0086 0023     		movs	r3, #0
 647 0088 0EE0     		b	.L44
 648              	.LVL77:
 649              	.L47:
 130:main.c        ****                     if(i < input_idx) display_data[i] = ascii_font[(uint8_t)pin_buf[i]];
 650              		.loc 1 130 0
 651 008a 9845     		cmp	r8, r3
ARM GAS  C:\Users\statm\AppData\Local\Temp\ccceTS3e.s 			page 15


 652 008c 07D9     		bls	.L45
 653              		.loc 1 130 0 is_stmt 0 discriminator 1
 654 008e 02AA     		add	r2, sp, #8
 655 0090 D25C     		ldrb	r2, [r2, r3]
 656 0092 A849     		ldr	r1, .L71+8
 657 0094 8A18     		adds	r2, r1, r2
 658 0096 117B     		ldrb	r1, [r2, #12]
 659 0098 A74A     		ldr	r2, .L71+12
 660 009a D154     		strb	r1, [r2, r3]
 661 009c 02E0     		b	.L46
 662              	.L45:
 131:main.c        ****                     else display_data[i] = 0xBF;
 663              		.loc 1 131 0 is_stmt 1
 664 009e BF21     		movs	r1, #191
 665 00a0 A54A     		ldr	r2, .L71+12
 666 00a2 D154     		strb	r1, [r2, r3]
 667              	.L46:
 129:main.c        ****                     if(i < input_idx) display_data[i] = ascii_font[(uint8_t)pin_buf[i]];
 668              		.loc 1 129 0 discriminator 2
 669 00a4 0133     		adds	r3, r3, #1
 670              	.LVL78:
 671 00a6 DBB2     		uxtb	r3, r3
 672              	.LVL79:
 673              	.L44:
 129:main.c        ****                     if(i < input_idx) display_data[i] = ascii_font[(uint8_t)pin_buf[i]];
 674              		.loc 1 129 0 is_stmt 0 discriminator 1
 675 00a8 032B     		cmp	r3, #3
 676 00aa EED9     		bls	.L47
 677              	.LBE13:
 132:main.c        ****                 }
 133:main.c        **** 
 134:main.c        ****                 if((key >= '0') && (key <= '9') && (input_idx < 4)) {
 678              		.loc 1 134 0 is_stmt 1
 679 00ac 009A     		ldr	r2, [sp]
 680 00ae 1300     		movs	r3, r2
 681              	.LVL80:
 682 00b0 303B     		subs	r3, r3, #48
 683 00b2 DBB2     		uxtb	r3, r3
 684 00b4 092B     		cmp	r3, #9
 685 00b6 08D8     		bhi	.L48
 686              		.loc 1 134 0 is_stmt 0 discriminator 1
 687 00b8 4346     		mov	r3, r8
 688 00ba 032B     		cmp	r3, #3
 689 00bc 05D8     		bhi	.L48
 135:main.c        ****                     pin_buf[input_idx++] = key;
 690              		.loc 1 135 0 is_stmt 1
 691 00be 0133     		adds	r3, r3, #1
 692              	.LVL81:
 693 00c0 02A9     		add	r1, sp, #8
 694 00c2 4046     		mov	r0, r8
 695 00c4 0A54     		strb	r2, [r1, r0]
 696 00c6 DBB2     		uxtb	r3, r3
 697 00c8 9846     		mov	r8, r3
 698              	.LVL82:
 699              	.L48:
 136:main.c        ****                 }
 137:main.c        ****                 
ARM GAS  C:\Users\statm\AppData\Local\Temp\ccceTS3e.s 			page 16


 138:main.c        ****                 if((key == '#') && (input_idx == 4)) {
 700              		.loc 1 138 0
 701 00ca 232C     		cmp	r4, #35
 702 00cc 00D0     		beq	.LCB642
 703 00ce 29E1     		b	.L37	@long jump
 704              	.LCB642:
 705              		.loc 1 138 0 is_stmt 0 discriminator 1
 706 00d0 4346     		mov	r3, r8
 707 00d2 042B     		cmp	r3, #4
 708 00d4 00D0     		beq	.LCB645
 709 00d6 25E1     		b	.L37	@long jump
 710              	.LCB645:
 139:main.c        ****                     if(strncmp(pin_buf, "2026", 4) == 0) {
 711              		.loc 1 139 0 is_stmt 1
 712 00d8 0422     		movs	r2, #4
 713 00da 9849     		ldr	r1, .L71+16
 714 00dc 02A8     		add	r0, sp, #8
 715 00de FFF7FEFF 		bl	strncmp
 716              	.LVL83:
 717 00e2 0028     		cmp	r0, #0
 718 00e4 06D1     		bne	.L49
 719              	.LVL84:
 140:main.c        ****                         current_state = STATE_OPEN_ANIM;
 141:main.c        ****                         scroll_step = 0;
 142:main.c        ****                         last_action_ms = system_tick_ms;
 720              		.loc 1 142 0
 721 00e6 964B     		ldr	r3, .L71+20
 722 00e8 5F68     		ldr	r7, [r3, #4]
 723              	.LVL85:
 141:main.c        ****                         last_action_ms = system_tick_ms;
 724              		.loc 1 141 0
 725 00ea 0026     		movs	r6, #0
 143:main.c        ****                     } else {
 144:main.c        ****                         current_state = STATE_PENALTY;
 145:main.c        ****                         action_timer_ms = 15000;
 146:main.c        ****                         last_action_ms = system_tick_ms;
 147:main.c        ****                     }
 148:main.c        ****                     input_idx = 0;
 726              		.loc 1 148 0
 727 00ec 0023     		movs	r3, #0
 728 00ee 9846     		mov	r8, r3
 729              	.LVL86:
 140:main.c        ****                         scroll_step = 0;
 730              		.loc 1 140 0
 731 00f0 0225     		movs	r5, #2
 732 00f2 17E1     		b	.L37
 733              	.LVL87:
 734              	.L49:
 146:main.c        ****                     }
 735              		.loc 1 146 0
 736 00f4 924B     		ldr	r3, .L71+20
 737 00f6 5F68     		ldr	r7, [r3, #4]
 738              	.LVL88:
 739              		.loc 1 148 0
 740 00f8 0023     		movs	r3, #0
 741 00fa 9846     		mov	r8, r3
 742              	.LVL89:
ARM GAS  C:\Users\statm\AppData\Local\Temp\ccceTS3e.s 			page 17


 145:main.c        ****                         last_action_ms = system_tick_ms;
 743              		.loc 1 145 0
 744 00fc 914B     		ldr	r3, .L71+24
 745 00fe 0193     		str	r3, [sp, #4]
 144:main.c        ****                         action_timer_ms = 15000;
 746              		.loc 1 144 0
 747 0100 0125     		movs	r5, #1
 748 0102 0FE1     		b	.L37
 749              	.LVL90:
 750              	.L40:
 149:main.c        ****                 }
 150:main.c        ****                 break;
 151:main.c        **** 
 152:main.c        ****             // ТАЙМЕР
 153:main.c        ****             case STATE_PENALTY:
 154:main.c        ****                 clear_display();
 751              		.loc 1 154 0
 752 0104 FFF7FEFF 		bl	clear_display
 753              	.LVL91:
 155:main.c        ****                 rgb_set(0, 1, 1);
 754              		.loc 1 155 0
 755 0108 0122     		movs	r2, #1
 756 010a 0121     		movs	r1, #1
 757 010c 0020     		movs	r0, #0
 758 010e FFF7FEFF 		bl	rgb_set
 759              	.LVL92:
 156:main.c        ****                 
 157:main.c        ****                 if((system_tick_ms - last_action_ms) >= 1000) {
 760              		.loc 1 157 0
 761 0112 8B4B     		ldr	r3, .L71+20
 762 0114 5B68     		ldr	r3, [r3, #4]
 763 0116 DB1B     		subs	r3, r3, r7
 764 0118 8B4A     		ldr	r2, .L71+28
 765 011a 9342     		cmp	r3, r2
 766 011c 0CD9     		bls	.L50
 158:main.c        ****                     if(action_timer_ms >= 1000) action_timer_ms -= 1000;
 767              		.loc 1 158 0
 768 011e 1300     		movs	r3, r2
 769 0120 0199     		ldr	r1, [sp, #4]
 770 0122 0A00     		movs	r2, r1
 771 0124 9942     		cmp	r1, r3
 772 0126 04D9     		bls	.L69
 773              		.loc 1 158 0 is_stmt 0 discriminator 1
 774 0128 884B     		ldr	r3, .L71+32
 775 012a 9C46     		mov	ip, r3
 776 012c 6244     		add	r2, r2, ip
 777 012e 0192     		str	r2, [sp, #4]
 778              	.LVL93:
 779 0130 00E0     		b	.L51
 780              	.LVL94:
 781              	.L69:
 159:main.c        ****                     else current_state = STATE_LOCKED;
 782              		.loc 1 159 0 is_stmt 1
 783 0132 0025     		movs	r5, #0
 784              	.LVL95:
 785              	.L51:
 160:main.c        ****                     last_action_ms = system_tick_ms;
ARM GAS  C:\Users\statm\AppData\Local\Temp\ccceTS3e.s 			page 18


 786              		.loc 1 160 0
 787 0134 824B     		ldr	r3, .L71+20
 788 0136 5F68     		ldr	r7, [r3, #4]
 789              	.LVL96:
 790              	.L50:
 161:main.c        ****                 }
 162:main.c        ****                 
 163:main.c        ****                 uint8_t sec = action_timer_ms / 1000;
 791              		.loc 1 163 0
 792 0138 FA21     		movs	r1, #250
 793 013a 8900     		lsls	r1, r1, #2
 794 013c 0198     		ldr	r0, [sp, #4]
 795 013e FFF7FEFF 		bl	__aeabi_uidiv
 796              	.LVL97:
 797 0142 C3B2     		uxtb	r3, r0
 798 0144 1A00     		movs	r2, r3
 799              	.LVL98:
 164:main.c        ****                 display_data[0] = ascii_font['P'];
 800              		.loc 1 164 0
 801 0146 7C4C     		ldr	r4, .L71+12
 802 0148 8C23     		movs	r3, #140
 803 014a 2370     		strb	r3, [r4]
 165:main.c        ****                 display_data[2] = ascii_font[sec / 10 + '0'];
 804              		.loc 1 165 0
 805 014c 0A21     		movs	r1, #10
 806 014e 0092     		str	r2, [sp]
 807              	.LVL99:
 808 0150 1000     		movs	r0, r2
 809 0152 FFF7FEFF 		bl	__aeabi_uidiv
 810              	.LVL100:
 811 0156 C0B2     		uxtb	r0, r0
 812 0158 3030     		adds	r0, r0, #48
 813 015a 764B     		ldr	r3, .L71+8
 814 015c 9B46     		mov	fp, r3
 815 015e 5844     		add	r0, r0, fp
 816 0160 037B     		ldrb	r3, [r0, #12]
 817 0162 A370     		strb	r3, [r4, #2]
 166:main.c        ****                 display_data[3] = ascii_font[sec % 10 + '0'];
 818              		.loc 1 166 0
 819 0164 0A21     		movs	r1, #10
 820 0166 0098     		ldr	r0, [sp]
 821 0168 FFF7FEFF 		bl	__aeabi_uidivmod
 822              	.LVL101:
 823 016c C9B2     		uxtb	r1, r1
 824 016e 3031     		adds	r1, r1, #48
 825 0170 5944     		add	r1, r1, fp
 826 0172 0B7B     		ldrb	r3, [r1, #12]
 827 0174 E370     		strb	r3, [r4, #3]
 167:main.c        ****                 break;
 828              		.loc 1 167 0
 829 0176 D5E0     		b	.L37
 830              	.LVL102:
 831              	.L41:
 168:main.c        **** 
 169:main.c        ****             // ДЗЕРКАЛЬНИЙ ТЕКСТ
 170:main.c        ****             case STATE_OPEN_ANIM:
 171:main.c        ****                 clear_display();
ARM GAS  C:\Users\statm\AppData\Local\Temp\ccceTS3e.s 			page 19


 832              		.loc 1 171 0
 833 0178 FFF7FEFF 		bl	clear_display
 834              	.LVL103:
 172:main.c        ****                 rgb_set(1, 0, 1);
 835              		.loc 1 172 0
 836 017c 0122     		movs	r2, #1
 837 017e 0021     		movs	r1, #0
 838 0180 0120     		movs	r0, #1
 839 0182 FFF7FEFF 		bl	rgb_set
 840              	.LVL104:
 173:main.c        ****                 
 174:main.c        ****                 const char* txt = "OPE     ";
 175:main.c        ****                 if((system_tick_ms - last_action_ms) >= 300) {
 841              		.loc 1 175 0
 842 0186 6E4B     		ldr	r3, .L71+20
 843 0188 5B68     		ldr	r3, [r3, #4]
 844 018a DB1B     		subs	r3, r3, r7
 845 018c 2C22     		movs	r2, #44
 846 018e FF32     		adds	r2, r2, #255
 847 0190 9342     		cmp	r3, r2
 848 0192 0AD9     		bls	.L52
 176:main.c        ****                     scroll_step++;
 849              		.loc 1 176 0
 850 0194 0136     		adds	r6, r6, #1
 851              	.LVL105:
 852 0196 F6B2     		uxtb	r6, r6
 853              	.LVL106:
 177:main.c        ****                     if(scroll_step >= 6) {
 854              		.loc 1 177 0
 855 0198 052E     		cmp	r6, #5
 856 019a 04D9     		bls	.L53
 857              	.LVL107:
 178:main.c        ****                         current_state = STATE_STOPWATCH;
 179:main.c        ****                         action_timer_ms = 0;
 180:main.c        ****                         last_action_ms = system_tick_ms;
 858              		.loc 1 180 0
 859 019c 684B     		ldr	r3, .L71+20
 860 019e 5B68     		ldr	r3, [r3, #4]
 861              	.LVL108:
 179:main.c        ****                         last_action_ms = system_tick_ms;
 862              		.loc 1 179 0
 863 01a0 0023     		movs	r3, #0
 864 01a2 0193     		str	r3, [sp, #4]
 178:main.c        ****                         current_state = STATE_STOPWATCH;
 865              		.loc 1 178 0
 866 01a4 0325     		movs	r5, #3
 867              	.LVL109:
 868              	.L53:
 181:main.c        ****                     }
 182:main.c        ****                     last_action_ms = system_tick_ms;
 869              		.loc 1 182 0
 870 01a6 664B     		ldr	r3, .L71+20
 871 01a8 5F68     		ldr	r7, [r3, #4]
 872              	.LVL110:
 873              	.L52:
 874              	.LBB14:
 183:main.c        ****                 }
ARM GAS  C:\Users\statm\AppData\Local\Temp\ccceTS3e.s 			page 20


 184:main.c        ****                 
 185:main.c        ****                 for(uint8_t i = 0; i < 4; i++) {
 875              		.loc 1 185 0
 876 01aa 0023     		movs	r3, #0
 877 01ac 0DE0     		b	.L54
 878              	.LVL111:
 879              	.L55:
 880              	.LBB15:
 186:main.c        ****                     uint8_t symbol = ascii_font[(uint8_t)txt[(scroll_step + i) % 8]];
 881              		.loc 1 186 0 discriminator 3
 882 01ae F118     		adds	r1, r6, r3
 883 01b0 0722     		movs	r2, #7
 884 01b2 1140     		ands	r1, r2
 885 01b4 6648     		ldr	r0, .L71+36
 886 01b6 415C     		ldrb	r1, [r0, r1]
 887 01b8 5E48     		ldr	r0, .L71+8
 888 01ba 4118     		adds	r1, r0, r1
 889 01bc 087B     		ldrb	r0, [r1, #12]
 890              	.LVL112:
 187:main.c        ****                     display_data[i] = symbol;
 891              		.loc 1 187 0 discriminator 3
 892 01be 5E49     		ldr	r1, .L71+12
 893 01c0 C854     		strb	r0, [r1, r3]
 188:main.c        ****                     display_data[7 - i] = symbol;
 894              		.loc 1 188 0 discriminator 3
 895 01c2 D21A     		subs	r2, r2, r3
 896 01c4 8854     		strb	r0, [r1, r2]
 897              	.LBE15:
 185:main.c        ****                     uint8_t symbol = ascii_font[(uint8_t)txt[(scroll_step + i) % 8]];
 898              		.loc 1 185 0 discriminator 3
 899 01c6 0133     		adds	r3, r3, #1
 900              	.LVL113:
 901 01c8 DBB2     		uxtb	r3, r3
 902              	.LVL114:
 903              	.L54:
 185:main.c        ****                     uint8_t symbol = ascii_font[(uint8_t)txt[(scroll_step + i) % 8]];
 904              		.loc 1 185 0 is_stmt 0 discriminator 1
 905 01ca 032B     		cmp	r3, #3
 906 01cc EFD9     		bls	.L55
 907 01ce A9E0     		b	.L37
 908              	.LVL115:
 909              	.L42:
 910              	.LBE14:
 189:main.c        ****                 }
 190:main.c        ****                 break;
 191:main.c        **** 
 192:main.c        ****             // СЕКУНДОМІР
 193:main.c        ****             case STATE_STOPWATCH:
 194:main.c        ****                 clear_display();
 911              		.loc 1 194 0 is_stmt 1
 912 01d0 FFF7FEFF 		bl	clear_display
 913              	.LVL116:
 195:main.c        ****                 rgb_set(1, 0, 1);
 914              		.loc 1 195 0
 915 01d4 0122     		movs	r2, #1
 916 01d6 0021     		movs	r1, #0
 917 01d8 0120     		movs	r0, #1
ARM GAS  C:\Users\statm\AppData\Local\Temp\ccceTS3e.s 			page 21


 918 01da FFF7FEFF 		bl	rgb_set
 919              	.LVL117:
 196:main.c        ****                 
 197:main.c        ****                 if(key == '9') {
 920              		.loc 1 197 0
 921 01de 392C     		cmp	r4, #57
 922 01e0 08D1     		bne	.L56
 923              	.LVL118:
 198:main.c        ****                     current_state = STATE_MEMO;
 199:main.c        ****                     input_idx = 0;
 200:main.c        ****                     is_scrolling = false;
 201:main.c        ****                     memset(pin_buf, 0, sizeof(pin_buf));
 924              		.loc 1 201 0
 925 01e2 0522     		movs	r2, #5
 926 01e4 0021     		movs	r1, #0
 927 01e6 02A8     		add	r0, sp, #8
 928 01e8 FFF7FEFF 		bl	memset
 929              	.LVL119:
 200:main.c        ****                     memset(pin_buf, 0, sizeof(pin_buf));
 930              		.loc 1 200 0
 931 01ec 0023     		movs	r3, #0
 932 01ee 9946     		mov	r9, r3
 199:main.c        ****                     is_scrolling = false;
 933              		.loc 1 199 0
 934 01f0 9846     		mov	r8, r3
 198:main.c        ****                     current_state = STATE_MEMO;
 935              		.loc 1 198 0
 936 01f2 0425     		movs	r5, #4
 937              	.LVL120:
 938              	.L56:
 202:main.c        ****                 }
 203:main.c        **** 
 204:main.c        ****                 if((system_tick_ms - last_action_ms) >= 10) {
 939              		.loc 1 204 0
 940 01f4 524B     		ldr	r3, .L71+20
 941 01f6 5B68     		ldr	r3, [r3, #4]
 942 01f8 DB1B     		subs	r3, r3, r7
 943 01fa 092B     		cmp	r3, #9
 944 01fc 04D9     		bls	.L57
 205:main.c        ****                     action_timer_ms += 10;
 945              		.loc 1 205 0
 946 01fe 019B     		ldr	r3, [sp, #4]
 947 0200 0A33     		adds	r3, r3, #10
 948 0202 0193     		str	r3, [sp, #4]
 949              	.LVL121:
 206:main.c        ****                     last_action_ms = system_tick_ms;
 950              		.loc 1 206 0
 951 0204 4E4B     		ldr	r3, .L71+20
 952              	.LVL122:
 953 0206 5F68     		ldr	r7, [r3, #4]
 954              	.LVL123:
 955              	.L57:
 207:main.c        ****                 }
 208:main.c        ****                 
 209:main.c        ****                 uint32_t t_sec = action_timer_ms / 1000;
 956              		.loc 1 209 0
 957 0208 FA21     		movs	r1, #250
ARM GAS  C:\Users\statm\AppData\Local\Temp\ccceTS3e.s 			page 22


 958 020a 8900     		lsls	r1, r1, #2
 959 020c 019C     		ldr	r4, [sp, #4]
 960 020e 2000     		movs	r0, r4
 961 0210 FFF7FEFF 		bl	__aeabi_uidiv
 962              	.LVL124:
 963 0214 0090     		str	r0, [sp]
 964              	.LVL125:
 210:main.c        ****                 display_data[4] = ascii_font[(t_sec / 60) % 10 + '0'] & 0x7F;
 965              		.loc 1 210 0
 966 0216 4F49     		ldr	r1, .L71+40
 967 0218 0194     		str	r4, [sp, #4]
 968              	.LVL126:
 969 021a 2000     		movs	r0, r4
 970              	.LVL127:
 971 021c FFF7FEFF 		bl	__aeabi_uidiv
 972              	.LVL128:
 973 0220 0A21     		movs	r1, #10
 974 0222 FFF7FEFF 		bl	__aeabi_uidivmod
 975              	.LVL129:
 976 0226 3031     		adds	r1, r1, #48
 977 0228 424B     		ldr	r3, .L71+8
 978 022a 9A46     		mov	r10, r3
 979 022c 5144     		add	r1, r1, r10
 980 022e 0B7B     		ldrb	r3, [r1, #12]
 981 0230 7F22     		movs	r2, #127
 982 0232 9346     		mov	fp, r2
 983 0234 1340     		ands	r3, r2
 984 0236 404C     		ldr	r4, .L71+12
 985              	.LVL130:
 986 0238 2371     		strb	r3, [r4, #4]
 211:main.c        ****                 display_data[5] = ascii_font[(t_sec % 60) / 10 + '0'];
 987              		.loc 1 211 0
 988 023a 3C21     		movs	r1, #60
 989 023c 0098     		ldr	r0, [sp]
 990 023e FFF7FEFF 		bl	__aeabi_uidivmod
 991              	.LVL131:
 992 0242 0B00     		movs	r3, r1
 993 0244 0A21     		movs	r1, #10
 994 0246 0093     		str	r3, [sp]
 995              	.LVL132:
 996 0248 1800     		movs	r0, r3
 997 024a FFF7FEFF 		bl	__aeabi_uidiv
 998              	.LVL133:
 999 024e 3030     		adds	r0, r0, #48
 1000 0250 5044     		add	r0, r0, r10
 1001 0252 037B     		ldrb	r3, [r0, #12]
 1002 0254 6371     		strb	r3, [r4, #5]
 212:main.c        ****                 display_data[6] = ascii_font[(t_sec % 60) % 10 + '0'] & 0x7F;
 1003              		.loc 1 212 0
 1004 0256 0A21     		movs	r1, #10
 1005 0258 0098     		ldr	r0, [sp]
 1006 025a FFF7FEFF 		bl	__aeabi_uidivmod
 1007              	.LVL134:
 1008 025e 3031     		adds	r1, r1, #48
 1009 0260 5144     		add	r1, r1, r10
 1010 0262 0B7B     		ldrb	r3, [r1, #12]
 1011 0264 5A46     		mov	r2, fp
ARM GAS  C:\Users\statm\AppData\Local\Temp\ccceTS3e.s 			page 23


 1012 0266 1340     		ands	r3, r2
 1013 0268 A371     		strb	r3, [r4, #6]
 213:main.c        ****                 display_data[7] = ascii_font[((action_timer_ms % 1000) / 100) + '0'];
 1014              		.loc 1 213 0
 1015 026a FA21     		movs	r1, #250
 1016 026c 8900     		lsls	r1, r1, #2
 1017 026e 0198     		ldr	r0, [sp, #4]
 1018 0270 FFF7FEFF 		bl	__aeabi_uidivmod
 1019              	.LVL135:
 1020 0274 0800     		movs	r0, r1
 1021 0276 6421     		movs	r1, #100
 1022 0278 FFF7FEFF 		bl	__aeabi_uidiv
 1023              	.LVL136:
 1024 027c 3030     		adds	r0, r0, #48
 1025 027e 5044     		add	r0, r0, r10
 1026 0280 037B     		ldrb	r3, [r0, #12]
 1027 0282 E371     		strb	r3, [r4, #7]
 214:main.c        ****                 break;
 1028              		.loc 1 214 0
 1029 0284 4EE0     		b	.L37
 1030              	.LVL137:
 1031              	.L43:
 215:main.c        **** 
 216:main.c        ****             // РУХОМИЙ РЯДОК
 217:main.c        ****             case STATE_MEMO:
 218:main.c        ****                 clear_display();
 1032              		.loc 1 218 0
 1033 0286 FFF7FEFF 		bl	clear_display
 1034              	.LVL138:
 219:main.c        ****                 rgb_set(1, 1, 0);
 1035              		.loc 1 219 0
 1036 028a 0022     		movs	r2, #0
 1037 028c 0121     		movs	r1, #1
 1038 028e 0120     		movs	r0, #1
 1039 0290 FFF7FEFF 		bl	rgb_set
 1040              	.LVL139:
 220:main.c        ****                 
 221:main.c        ****                 if((key >= '0') && (key <= '9') && (input_idx < 4)) {
 1041              		.loc 1 221 0
 1042 0294 009A     		ldr	r2, [sp]
 1043 0296 1300     		movs	r3, r2
 1044 0298 303B     		subs	r3, r3, #48
 1045 029a DBB2     		uxtb	r3, r3
 1046 029c 092B     		cmp	r3, #9
 1047 029e 08D8     		bhi	.L58
 1048              		.loc 1 221 0 is_stmt 0 discriminator 1
 1049 02a0 4346     		mov	r3, r8
 1050 02a2 032B     		cmp	r3, #3
 1051 02a4 05D8     		bhi	.L58
 222:main.c        ****                     pin_buf[input_idx++] = key;
 1052              		.loc 1 222 0 is_stmt 1
 1053 02a6 0133     		adds	r3, r3, #1
 1054              	.LVL140:
 1055 02a8 02A9     		add	r1, sp, #8
 1056 02aa 4046     		mov	r0, r8
 1057 02ac 0A54     		strb	r2, [r1, r0]
 1058 02ae DBB2     		uxtb	r3, r3
ARM GAS  C:\Users\statm\AppData\Local\Temp\ccceTS3e.s 			page 24


 1059 02b0 9846     		mov	r8, r3
 1060              	.LVL141:
 1061              	.L58:
 223:main.c        ****                 }
 224:main.c        ****                 if(key == '#') {
 1062              		.loc 1 224 0
 1063 02b2 232C     		cmp	r4, #35
 1064 02b4 06D1     		bne	.L59
 225:main.c        ****                     is_scrolling = !is_scrolling;
 1065              		.loc 1 225 0
 1066 02b6 0123     		movs	r3, #1
 1067 02b8 4A46     		mov	r2, r9
 1068 02ba 5A40     		eors	r2, r3
 1069 02bc D3B2     		uxtb	r3, r2
 1070 02be 9946     		mov	r9, r3
 1071              	.LVL142:
 226:main.c        ****                     last_action_ms = system_tick_ms;
 1072              		.loc 1 226 0
 1073 02c0 1F4B     		ldr	r3, .L71+20
 1074 02c2 5F68     		ldr	r7, [r3, #4]
 1075              	.LVL143:
 1076              	.L59:
 227:main.c        ****                 }
 228:main.c        **** 
 229:main.c        ****                 if(!is_scrolling) {
 1077              		.loc 1 229 0
 1078 02c4 4B46     		mov	r3, r9
 1079 02c6 002B     		cmp	r3, #0
 1080 02c8 0ED1     		bne	.L60
 1081 02ca 0AE0     		b	.L61
 1082              	.LVL144:
 1083              	.L63:
 1084              	.LBB16:
 230:main.c        ****                     for(uint8_t i = 0; i < 4; i++) {
 231:main.c        ****                         if(i < input_idx) display_data[i] = ascii_font[(uint8_t)pin_buf[i]];
 1085              		.loc 1 231 0
 1086 02cc 9845     		cmp	r8, r3
 1087 02ce 06D9     		bls	.L62
 1088              		.loc 1 231 0 is_stmt 0 discriminator 1
 1089 02d0 02AA     		add	r2, sp, #8
 1090 02d2 D25C     		ldrb	r2, [r2, r3]
 1091 02d4 1749     		ldr	r1, .L71+8
 1092 02d6 8A18     		adds	r2, r1, r2
 1093 02d8 117B     		ldrb	r1, [r2, #12]
 1094 02da 174A     		ldr	r2, .L71+12
 1095 02dc D154     		strb	r1, [r2, r3]
 1096              	.L62:
 230:main.c        ****                     for(uint8_t i = 0; i < 4; i++) {
 1097              		.loc 1 230 0 is_stmt 1 discriminator 2
 1098 02de 0133     		adds	r3, r3, #1
 1099              	.LVL145:
 1100 02e0 DBB2     		uxtb	r3, r3
 1101              	.LVL146:
 1102              	.L61:
 230:main.c        ****                     for(uint8_t i = 0; i < 4; i++) {
 1103              		.loc 1 230 0 is_stmt 0 discriminator 1
 1104 02e2 032B     		cmp	r3, #3
ARM GAS  C:\Users\statm\AppData\Local\Temp\ccceTS3e.s 			page 25


 1105 02e4 F2D9     		bls	.L63
 1106 02e6 1DE0     		b	.L37
 1107              	.LVL147:
 1108              	.L60:
 1109              	.LBE16:
 232:main.c        ****                     }
 233:main.c        ****                 } else {
 234:main.c        ****                     if((system_tick_ms - last_action_ms) >= 350) {
 1110              		.loc 1 234 0 is_stmt 1
 1111 02e8 154B     		ldr	r3, .L71+20
 1112 02ea 5B68     		ldr	r3, [r3, #4]
 1113 02ec DB1B     		subs	r3, r3, r7
 1114 02ee 5E22     		movs	r2, #94
 1115 02f0 FF32     		adds	r2, r2, #255
 1116 02f2 9342     		cmp	r3, r2
 1117 02f4 06D9     		bls	.L64
 235:main.c        ****                         scroll_step++;
 1118              		.loc 1 235 0
 1119 02f6 0136     		adds	r6, r6, #1
 1120              	.LVL148:
 1121 02f8 F6B2     		uxtb	r6, r6
 1122              	.LVL149:
 236:main.c        ****                         if(scroll_step >= 8) scroll_step = 0;
 1123              		.loc 1 236 0
 1124 02fa 072E     		cmp	r6, #7
 1125 02fc 00D9     		bls	.L65
 1126 02fe 0026     		movs	r6, #0
 1127              	.LVL150:
 1128              	.L65:
 237:main.c        ****                         last_action_ms = system_tick_ms;
 1129              		.loc 1 237 0
 1130 0300 0F4B     		ldr	r3, .L71+20
 1131 0302 5F68     		ldr	r7, [r3, #4]
 1132              	.LVL151:
 1133              	.L64:
 1134              	.LBB17:
 238:main.c        ****                     }
 239:main.c        ****                     for(uint8_t i = 0; i < 8; i++) {
 1135              		.loc 1 239 0
 1136 0304 0023     		movs	r3, #0
 1137 0306 0BE0     		b	.L66
 1138              	.LVL152:
 1139              	.L67:
 240:main.c        ****                         display_data[i] = ascii_font[(uint8_t)pin_buf[(scroll_step + i) % 4]];
 1140              		.loc 1 240 0 discriminator 3
 1141 0308 F218     		adds	r2, r6, r3
 1142 030a 0321     		movs	r1, #3
 1143 030c 0A40     		ands	r2, r1
 1144 030e 02A9     		add	r1, sp, #8
 1145 0310 8A5C     		ldrb	r2, [r1, r2]
 1146 0312 0849     		ldr	r1, .L71+8
 1147 0314 8A18     		adds	r2, r1, r2
 1148 0316 117B     		ldrb	r1, [r2, #12]
 1149 0318 074A     		ldr	r2, .L71+12
 1150 031a D154     		strb	r1, [r2, r3]
 239:main.c        ****                         display_data[i] = ascii_font[(uint8_t)pin_buf[(scroll_step + i) % 4]];
 1151              		.loc 1 239 0 discriminator 3
ARM GAS  C:\Users\statm\AppData\Local\Temp\ccceTS3e.s 			page 26


 1152 031c 0133     		adds	r3, r3, #1
 1153              	.LVL153:
 1154 031e DBB2     		uxtb	r3, r3
 1155              	.LVL154:
 1156              	.L66:
 239:main.c        ****                         display_data[i] = ascii_font[(uint8_t)pin_buf[(scroll_step + i) % 4]];
 1157              		.loc 1 239 0 is_stmt 0 discriminator 1
 1158 0320 072B     		cmp	r3, #7
 1159 0322 F1D9     		bls	.L67
 1160              	.LVL155:
 1161              	.L37:
 1162              	.LBE17:
 1163              	.LBE12:
 241:main.c        ****                     }
 242:main.c        ****                 }
 243:main.c        ****                 break;
 244:main.c        ****         }
 245:main.c        ****         CyDelay(10);
 1164              		.loc 1 245 0 is_stmt 1
 1165 0324 0A20     		movs	r0, #10
 1166 0326 FFF7FEFF 		bl	CyDelay
 1167              	.LVL156:
 1168              	.LBE11:
 246:main.c        ****     }
 1169              		.loc 1 246 0
 1170 032a 89E6     		b	.L68
 1171              	.L72:
 1172              		.align	2
 1173              	.L71:
 1174 032c 00000000 		.word	Timer_Int_Handler
 1175 0330 00000000 		.word	.L39
 1176 0334 14000000 		.word	.LANCHOR2
 1177 0338 00000000 		.word	.LANCHOR1
 1178 033c 00000000 		.word	.LC10
 1179 0340 00000000 		.word	.LANCHOR0
 1180 0344 983A0000 		.word	15000
 1181 0348 E7030000 		.word	999
 1182 034c 18FCFFFF 		.word	-1000
 1183 0350 08000000 		.word	.LC13
 1184 0354 60EA0000 		.word	60000
 1185              		.cfi_endproc
 1186              	.LFE38:
 1187              		.size	main, .-main
 1188              		.global	system_tick_ms
 1189              		.global	display_data
 1190              		.global	ascii_font
 1191              		.section	.rodata
 1192              		.align	2
 1193              		.set	.LANCHOR2,. + 0
 1194              		.type	key_map, %object
 1195              		.size	key_map, 12
 1196              	key_map:
 1197 0014 31       		.byte	49
 1198 0015 32       		.byte	50
 1199 0016 33       		.byte	51
 1200 0017 34       		.byte	52
 1201 0018 35       		.byte	53
ARM GAS  C:\Users\statm\AppData\Local\Temp\ccceTS3e.s 			page 27


 1202 0019 36       		.byte	54
 1203 001a 37       		.byte	55
 1204 001b 38       		.byte	56
 1205 001c 39       		.byte	57
 1206 001d 2A       		.byte	42
 1207 001e 30       		.byte	48
 1208 001f 23       		.byte	35
 1209              		.type	ascii_font, %object
 1210              		.size	ascii_font, 128
 1211              	ascii_font:
 1212 0020 00000000 		.space	32
 1212      00000000 
 1212      00000000 
 1212      00000000 
 1212      00000000 
 1213 0040 FF       		.byte	-1
 1214 0041 00000000 		.space	12
 1214      00000000 
 1214      00000000 
 1215 004d BF       		.byte	-65
 1216 004e 0000     		.space	2
 1217 0050 C0       		.byte	-64
 1218 0051 F9       		.byte	-7
 1219 0052 A4       		.byte	-92
 1220 0053 B0       		.byte	-80
 1221 0054 99       		.byte	-103
 1222 0055 92       		.byte	-110
 1223 0056 82       		.byte	-126
 1224 0057 F8       		.byte	-8
 1225 0058 80       		.byte	-128
 1226 0059 90       		.byte	-112
 1227 005a 00000000 		.space	11
 1227      00000000 
 1227      000000
 1228 0065 86       		.byte	-122
 1229 0066 00000000 		.space	8
 1229      00000000 
 1230 006e AB       		.byte	-85
 1231 006f C0       		.byte	-64
 1232 0070 8C       		.byte	-116
 1233 0071 00000000 		.space	14
 1233      00000000 
 1233      00000000 
 1233      0000
 1234 007f F7       		.byte	-9
 1235 0080 00000000 		.space	32
 1235      00000000 
 1235      00000000 
 1235      00000000 
 1235      00000000 
 1236              		.data
 1237              		.align	2
 1238              		.set	.LANCHOR1,. + 0
 1239              		.type	display_data, %object
 1240              		.size	display_data, 8
 1241              	display_data:
 1242 0000 FF       		.byte	-1
ARM GAS  C:\Users\statm\AppData\Local\Temp\ccceTS3e.s 			page 28


 1243 0001 FF       		.byte	-1
 1244 0002 FF       		.byte	-1
 1245 0003 FF       		.byte	-1
 1246 0004 FF       		.byte	-1
 1247 0005 FF       		.byte	-1
 1248 0006 FF       		.byte	-1
 1249 0007 FF       		.byte	-1
 1250              		.section	.rodata.str1.4,"aMS",%progbits,1
 1251              		.align	2
 1252              	.LC10:
 1253 0000 32303236 		.ascii	"2026\000"
 1253      00
 1254 0005 000000   		.space	3
 1255              	.LC13:
 1256 0008 4F504520 		.ascii	"OPE     \000"
 1256      20202020 
 1256      00
 1257              		.bss
 1258              		.align	2
 1259              		.set	.LANCHOR0,. + 0
 1260              		.type	digit_idx.5441, %object
 1261              		.size	digit_idx.5441, 1
 1262              	digit_idx.5441:
 1263 0000 00       		.space	1
 1264 0001 000000   		.space	3
 1265              		.type	system_tick_ms, %object
 1266              		.size	system_tick_ms, 4
 1267              	system_tick_ms:
 1268 0004 00000000 		.space	4
 1269              		.type	last_keys, %object
 1270              		.size	last_keys, 12
 1271              	last_keys:
 1272 0008 00000000 		.space	12
 1272      00000000 
 1272      00000000 
 1273              		.text
 1274              	.Letext0:
 1275              		.file 2 "e:\\psoc creator\\4.4\\psoc creator\\import\\gnu\\arm\\5.4.1\\arm-none-eabi\\include\\mac
 1276              		.file 3 "e:\\psoc creator\\4.4\\psoc creator\\import\\gnu\\arm\\5.4.1\\arm-none-eabi\\include\\sys
 1277              		.file 4 "Generated_Source\\PSoC4/Pin_DO.h"
 1278              		.file 5 "Generated_Source\\PSoC4/Pin_CLK.h"
 1279              		.file 6 "Generated_Source\\PSoC4/Pin_Latch.h"
 1280              		.file 7 "Generated_Source\\PSoC4/LED_R.h"
 1281              		.file 8 "Generated_Source\\PSoC4/LED_G.h"
 1282              		.file 9 "Generated_Source\\PSoC4/LED_B.h"
 1283              		.file 10 "Generated_Source\\PSoC4/COLUMN_0.h"
 1284              		.file 11 "Generated_Source\\PSoC4/COLUMN_1.h"
 1285              		.file 12 "Generated_Source\\PSoC4/COLUMN_2.h"
 1286              		.file 13 "Generated_Source\\PSoC4/CyLib.h"
 1287              		.file 14 "Generated_Source\\PSoC4/ROW_0.h"
 1288              		.file 15 "Generated_Source\\PSoC4/ROW_1.h"
 1289              		.file 16 "Generated_Source\\PSoC4/ROW_2.h"
 1290              		.file 17 "Generated_Source\\PSoC4/ROW_3.h"
 1291              		.file 18 "e:\\psoc creator\\4.4\\psoc creator\\import\\gnu\\arm\\5.4.1\\arm-none-eabi\\include\\st
 1292              		.file 19 "Generated_Source\\PSoC4/Timer.h"
 1293              		.file 20 "Generated_Source\\PSoC4/Timer_Int.h"