ARM GAS  C:\Users\statm\AppData\Local\Temp\ccrjYWV9.s 			page 1


   1              		.syntax unified
   2              		.cpu cortex-m0
   3              		.fpu softvfp
   4              		.eabi_attribute 20, 1
   5              		.eabi_attribute 21, 1
   6              		.eabi_attribute 23, 3
   7              		.eabi_attribute 24, 1
   8              		.eabi_attribute 25, 1
   9              		.eabi_attribute 26, 1
  10              		.eabi_attribute 30, 1
  11              		.eabi_attribute 34, 0
  12              		.eabi_attribute 18, 4
  13              		.thumb
  14              		.syntax unified
  15              		.file	"main.c"
  16              		.text
  17              	.Ltext0:
  18              		.cfi_sections	.debug_frame
  19              		.section	.text.FourDigit74HC595_sendData,"ax",%progbits
  20              		.align	2
  21              		.code	16
  22              		.thumb_func
  23              		.type	FourDigit74HC595_sendData, %function
  24              	FourDigit74HC595_sendData:
  25              	.LFB32:
  26              		.file 1 "main.c"
   1:main.c        **** #include "project.h"
   2:main.c        **** 
   3:main.c        **** static uint8_t LED_NUM[] = {
   4:main.c        ****     0xC0, 0xF9, 0xA4, 0xB0, 0x99, 0x92, 0x82, 0xF8, 
   5:main.c        ****     0x80, 0x90, 0xBF, 0x88, 0x83, 0xC6, 0xA1, 0x86, 
   6:main.c        ****     0x8E, 0x7F
   7:main.c        **** };
   8:main.c        **** 
   9:main.c        **** static void FourDigit74HC595_sendData(uint8_t data) {
  27              		.loc 1 9 0
  28              		.cfi_startproc
  29              		@ args = 0, pretend = 0, frame = 0
  30              		@ frame_needed = 0, uses_anonymous_args = 0
  31              	.LVL0:
  32 0000 70B5     		push	{r4, r5, r6, lr}
  33              		.cfi_def_cfa_offset 16
  34              		.cfi_offset 4, -16
  35              		.cfi_offset 5, -12
  36              		.cfi_offset 6, -8
  37              		.cfi_offset 14, -4
  38 0002 0500     		movs	r5, r0
  39              	.LVL1:
  40              	.LBB2:
  10:main.c        ****     for (uint8_t i = 0; i < 8; i++) {
  41              		.loc 1 10 0
  42 0004 0024     		movs	r4, #0
  43 0006 12E0     		b	.L2
  44              	.LVL2:
  45              	.L5:
  11:main.c        ****         if (data & (0x80 >> i)) {
  46              		.loc 1 11 0
ARM GAS  C:\Users\statm\AppData\Local\Temp\ccrjYWV9.s 			page 2


  47 0008 8023     		movs	r3, #128
  48 000a 2341     		asrs	r3, r3, r4
  49 000c 2B42     		tst	r3, r5
  50 000e 03D0     		beq	.L3
  12:main.c        ****             Pin_DO_Write(1);
  51              		.loc 1 12 0
  52 0010 0120     		movs	r0, #1
  53 0012 FFF7FEFF 		bl	Pin_DO_Write
  54              	.LVL3:
  55 0016 02E0     		b	.L4
  56              	.L3:
  13:main.c        ****         } else {
  14:main.c        ****             Pin_DO_Write(0);
  57              		.loc 1 14 0
  58 0018 0020     		movs	r0, #0
  59 001a FFF7FEFF 		bl	Pin_DO_Write
  60              	.LVL4:
  61              	.L4:
  15:main.c        ****         }
  16:main.c        ****         Pin_CLK_Write(1);
  62              		.loc 1 16 0 discriminator 2
  63 001e 0120     		movs	r0, #1
  64 0020 FFF7FEFF 		bl	Pin_CLK_Write
  65              	.LVL5:
  17:main.c        ****         Pin_CLK_Write(0);
  66              		.loc 1 17 0 discriminator 2
  67 0024 0020     		movs	r0, #0
  68 0026 FFF7FEFF 		bl	Pin_CLK_Write
  69              	.LVL6:
  10:main.c        ****         if (data & (0x80 >> i)) {
  70              		.loc 1 10 0 discriminator 2
  71 002a 0134     		adds	r4, r4, #1
  72              	.LVL7:
  73 002c E4B2     		uxtb	r4, r4
  74              	.LVL8:
  75              	.L2:
  10:main.c        ****         if (data & (0x80 >> i)) {
  76              		.loc 1 10 0 is_stmt 0 discriminator 1
  77 002e 072C     		cmp	r4, #7
  78 0030 EAD9     		bls	.L5
  79              	.LBE2:
  18:main.c        ****     }
  19:main.c        **** }
  80              		.loc 1 19 0 is_stmt 1
  81              		@ sp needed
  82              	.LVL9:
  83 0032 70BD     		pop	{r4, r5, r6, pc}
  84              		.cfi_endproc
  85              	.LFE32:
  86              		.size	FourDigit74HC595_sendData, .-FourDigit74HC595_sendData
  87              		.section	.text.FourDigit74HC595_sendOneDigit,"ax",%progbits
  88              		.align	2
  89              		.code	16
  90              		.thumb_func
  91              		.type	FourDigit74HC595_sendOneDigit, %function
  92              	FourDigit74HC595_sendOneDigit:
  93              	.LFB33:
ARM GAS  C:\Users\statm\AppData\Local\Temp\ccrjYWV9.s 			page 3


  20:main.c        **** 
  21:main.c        **** static void FourDigit74HC595_sendOneDigit(uint8_t position, uint8_t digit, uint8_t dot) {
  94              		.loc 1 21 0
  95              		.cfi_startproc
  96              		@ args = 0, pretend = 0, frame = 0
  97              		@ frame_needed = 0, uses_anonymous_args = 0
  98              	.LVL10:
  99 0000 70B5     		push	{r4, r5, r6, lr}
 100              		.cfi_def_cfa_offset 16
 101              		.cfi_offset 4, -16
 102              		.cfi_offset 5, -12
 103              		.cfi_offset 6, -8
 104              		.cfi_offset 14, -4
 105 0002 0400     		movs	r4, r0
 106 0004 0D00     		movs	r5, r1
 107 0006 1600     		movs	r6, r2
  22:main.c        ****     if (position >= 8) {
 108              		.loc 1 22 0
 109 0008 0728     		cmp	r0, #7
 110 000a 05D9     		bls	.L7
  23:main.c        ****         FourDigit74HC595_sendData(0xFF);
 111              		.loc 1 23 0
 112 000c FF20     		movs	r0, #255
 113              	.LVL11:
 114 000e FFF7FEFF 		bl	FourDigit74HC595_sendData
 115              	.LVL12:
  24:main.c        ****         FourDigit74HC595_sendData(0xFF);
 116              		.loc 1 24 0
 117 0012 FF20     		movs	r0, #255
 118 0014 FFF7FEFF 		bl	FourDigit74HC595_sendData
 119              	.LVL13:
 120              	.L7:
  25:main.c        ****     }
  26:main.c        ****     
  27:main.c        ****     FourDigit74HC595_sendData(0xFF & ~(1 << position));
 121              		.loc 1 27 0
 122 0018 0120     		movs	r0, #1
 123 001a A040     		lsls	r0, r0, r4
 124 001c C043     		mvns	r0, r0
 125 001e C0B2     		uxtb	r0, r0
 126 0020 FFF7FEFF 		bl	FourDigit74HC595_sendData
 127              	.LVL14:
  28:main.c        ****     
  29:main.c        ****     if (dot) {
 128              		.loc 1 29 0
 129 0024 002E     		cmp	r6, #0
 130 0026 06D0     		beq	.L8
  30:main.c        ****         FourDigit74HC595_sendData(LED_NUM[digit] & 0x7F);
 131              		.loc 1 30 0
 132 0028 084B     		ldr	r3, .L10
 133 002a 5B5D     		ldrb	r3, [r3, r5]
 134 002c 7F20     		movs	r0, #127
 135 002e 1840     		ands	r0, r3
 136 0030 FFF7FEFF 		bl	FourDigit74HC595_sendData
 137              	.LVL15:
 138 0034 03E0     		b	.L9
 139              	.L8:
ARM GAS  C:\Users\statm\AppData\Local\Temp\ccrjYWV9.s 			page 4


  31:main.c        ****     } else {
  32:main.c        ****         FourDigit74HC595_sendData(LED_NUM[digit]);
 140              		.loc 1 32 0
 141 0036 054B     		ldr	r3, .L10
 142 0038 585D     		ldrb	r0, [r3, r5]
 143 003a FFF7FEFF 		bl	FourDigit74HC595_sendData
 144              	.LVL16:
 145              	.L9:
  33:main.c        ****     }
  34:main.c        ****     
  35:main.c        ****     Pin_Latch_Write(1);
 146              		.loc 1 35 0
 147 003e 0120     		movs	r0, #1
 148 0040 FFF7FEFF 		bl	Pin_Latch_Write
 149              	.LVL17:
  36:main.c        ****     Pin_Latch_Write(0);
 150              		.loc 1 36 0
 151 0044 0020     		movs	r0, #0
 152 0046 FFF7FEFF 		bl	Pin_Latch_Write
 153              	.LVL18:
  37:main.c        **** }
 154              		.loc 1 37 0
 155              		@ sp needed
 156 004a 70BD     		pop	{r4, r5, r6, pc}
 157              	.L11:
 158              		.align	2
 159              	.L10:
 160 004c 00000000 		.word	.LANCHOR0
 161              		.cfi_endproc
 162              	.LFE33:
 163              		.size	FourDigit74HC595_sendOneDigit, .-FourDigit74HC595_sendOneDigit
 164              		.section	.text.Timer_Int_Handler2,"ax",%progbits
 165              		.align	2
 166              		.global	Timer_Int_Handler2
 167              		.code	16
 168              		.thumb_func
 169              		.type	Timer_Int_Handler2, %function
 170              	Timer_Int_Handler2:
 171              	.LFB35:
  38:main.c        **** 
  39:main.c        **** const uint8_t keyMap[4][3] = {
  40:main.c        ****     {1, 2, 3},
  41:main.c        ****     {4, 5, 6},
  42:main.c        ****     {7, 8, 9},
  43:main.c        ****     {10, 0, 11} 
  44:main.c        **** };
  45:main.c        **** 
  46:main.c        **** uint8_t ScanMatrixKeypad(void) {
  47:main.c        ****     uint8_t row;
  48:main.c        ****     for (row = 0; row < 4; row++) {
  49:main.c        ****         ROW_0_Write(1); 
  50:main.c        ****         ROW_1_Write(1); 
  51:main.c        ****         ROW_2_Write(1); 
  52:main.c        ****         ROW_3_Write(1);
  53:main.c        ****         
  54:main.c        ****         if(row == 0) ROW_0_Write(0);
  55:main.c        ****         if(row == 1) ROW_1_Write(0);
ARM GAS  C:\Users\statm\AppData\Local\Temp\ccrjYWV9.s 			page 5


  56:main.c        ****         if(row == 2) ROW_2_Write(0);
  57:main.c        ****         if(row == 3) ROW_3_Write(0);
  58:main.c        ****         
  59:main.c        ****         CyDelayUs(50);
  60:main.c        ****       
  61:main.c        ****         if (COLUMN_0_Read() == 0) return keyMap[row][0];
  62:main.c        ****         if (COLUMN_1_Read() == 0) return keyMap[row][1];
  63:main.c        ****         if (COLUMN_2_Read() == 0) return keyMap[row][2];
  64:main.c        ****     }
  65:main.c        ****     return 0xFF; 
  66:main.c        **** }
  67:main.c        **** 
  68:main.c        **** // --- ПОЧАТОК КОДУ З ПУНКТУ 5 ---
  69:main.c        **** 
  70:main.c        **** // Змінна для відстеження поточного індикатора (рис. 7)
  71:main.c        **** static uint8_t led_counter = 0;
  72:main.c        **** 
  73:main.c        **** //Обробник переривання таймера 
  74:main.c        **** CY_ISR(Timer_Int_Handler2)
  75:main.c        **** {
 172              		.loc 1 75 0
 173              		.cfi_startproc
 174              		@ args = 0, pretend = 0, frame = 8
 175              		@ frame_needed = 0, uses_anonymous_args = 0
 176 0000 10B5     		push	{r4, lr}
 177              		.cfi_def_cfa_offset 8
 178              		.cfi_offset 4, -8
 179              		.cfi_offset 14, -4
 180 0002 82B0     		sub	sp, sp, #8
 181              		.cfi_def_cfa_offset 16
  76:main.c        ****     uint8_t data[8] = {7, 6, 5, 4, 3, 2, 1, 0};
 182              		.loc 1 76 0
 183 0004 0822     		movs	r2, #8
 184 0006 0B49     		ldr	r1, .L14
 185 0008 1431     		adds	r1, r1, #20
 186 000a 6846     		mov	r0, sp
 187 000c FFF7FEFF 		bl	memcpy
 188              	.LVL19:
  77:main.c        ****     FourDigit74HC595_sendOneDigit(led_counter, data[led_counter], 0);
 189              		.loc 1 77 0
 190 0010 094C     		ldr	r4, .L14+4
 191 0012 2078     		ldrb	r0, [r4]
 192 0014 6B46     		mov	r3, sp
 193 0016 195C     		ldrb	r1, [r3, r0]
 194 0018 0022     		movs	r2, #0
 195 001a FFF7FEFF 		bl	FourDigit74HC595_sendOneDigit
 196              	.LVL20:
  78:main.c        ****     led_counter++;
 197              		.loc 1 78 0
 198 001e 2378     		ldrb	r3, [r4]
 199 0020 0133     		adds	r3, r3, #1
 200 0022 DBB2     		uxtb	r3, r3
 201 0024 2370     		strb	r3, [r4]
  79:main.c        ****     if(led_counter > 7) led_counter = 0;
 202              		.loc 1 79 0
 203 0026 072B     		cmp	r3, #7
 204 0028 02D9     		bls	.L12
ARM GAS  C:\Users\statm\AppData\Local\Temp\ccrjYWV9.s 			page 6


 205              		.loc 1 79 0 is_stmt 0 discriminator 1
 206 002a 0022     		movs	r2, #0
 207 002c 024B     		ldr	r3, .L14+4
 208 002e 1A70     		strb	r2, [r3]
 209              	.L12:
  80:main.c        **** }
 210              		.loc 1 80 0 is_stmt 1
 211 0030 02B0     		add	sp, sp, #8
 212              		@ sp needed
 213 0032 10BD     		pop	{r4, pc}
 214              	.L15:
 215              		.align	2
 216              	.L14:
 217 0034 00000000 		.word	.LANCHOR0
 218 0038 00000000 		.word	.LANCHOR1
 219              		.cfi_endproc
 220              	.LFE35:
 221              		.size	Timer_Int_Handler2, .-Timer_Int_Handler2
 222              		.section	.text.ScanMatrixKeypad,"ax",%progbits
 223              		.align	2
 224              		.global	ScanMatrixKeypad
 225              		.code	16
 226              		.thumb_func
 227              		.type	ScanMatrixKeypad, %function
 228              	ScanMatrixKeypad:
 229              	.LFB34:
  46:main.c        ****     uint8_t row;
 230              		.loc 1 46 0
 231              		.cfi_startproc
 232              		@ args = 0, pretend = 0, frame = 0
 233              		@ frame_needed = 0, uses_anonymous_args = 0
 234 0000 10B5     		push	{r4, lr}
 235              		.cfi_def_cfa_offset 8
 236              		.cfi_offset 4, -8
 237              		.cfi_offset 14, -4
 238              	.LVL21:
  48:main.c        ****         ROW_0_Write(1); 
 239              		.loc 1 48 0
 240 0002 0024     		movs	r4, #0
 241 0004 42E0     		b	.L17
 242              	.LVL22:
 243              	.L26:
  49:main.c        ****         ROW_1_Write(1); 
 244              		.loc 1 49 0
 245 0006 0120     		movs	r0, #1
 246 0008 FFF7FEFF 		bl	ROW_0_Write
 247              	.LVL23:
  50:main.c        ****         ROW_2_Write(1); 
 248              		.loc 1 50 0
 249 000c 0120     		movs	r0, #1
 250 000e FFF7FEFF 		bl	ROW_1_Write
 251              	.LVL24:
  51:main.c        ****         ROW_3_Write(1);
 252              		.loc 1 51 0
 253 0012 0120     		movs	r0, #1
 254 0014 FFF7FEFF 		bl	ROW_2_Write
 255              	.LVL25:
ARM GAS  C:\Users\statm\AppData\Local\Temp\ccrjYWV9.s 			page 7


  52:main.c        ****         
 256              		.loc 1 52 0
 257 0018 0120     		movs	r0, #1
 258 001a FFF7FEFF 		bl	ROW_3_Write
 259              	.LVL26:
  54:main.c        ****         if(row == 1) ROW_1_Write(0);
 260              		.loc 1 54 0
 261 001e 002C     		cmp	r4, #0
 262 0020 02D1     		bne	.L18
  54:main.c        ****         if(row == 1) ROW_1_Write(0);
 263              		.loc 1 54 0 is_stmt 0 discriminator 1
 264 0022 0020     		movs	r0, #0
 265 0024 FFF7FEFF 		bl	ROW_0_Write
 266              	.LVL27:
 267              	.L18:
  55:main.c        ****         if(row == 2) ROW_2_Write(0);
 268              		.loc 1 55 0 is_stmt 1
 269 0028 012C     		cmp	r4, #1
 270 002a 02D1     		bne	.L19
  55:main.c        ****         if(row == 2) ROW_2_Write(0);
 271              		.loc 1 55 0 is_stmt 0 discriminator 1
 272 002c 0020     		movs	r0, #0
 273 002e FFF7FEFF 		bl	ROW_1_Write
 274              	.LVL28:
 275              	.L19:
  56:main.c        ****         if(row == 3) ROW_3_Write(0);
 276              		.loc 1 56 0 is_stmt 1
 277 0032 022C     		cmp	r4, #2
 278 0034 02D1     		bne	.L20
  56:main.c        ****         if(row == 3) ROW_3_Write(0);
 279              		.loc 1 56 0 is_stmt 0 discriminator 1
 280 0036 0020     		movs	r0, #0
 281 0038 FFF7FEFF 		bl	ROW_2_Write
 282              	.LVL29:
 283              	.L20:
  57:main.c        ****         
 284              		.loc 1 57 0 is_stmt 1
 285 003c 032C     		cmp	r4, #3
 286 003e 02D1     		bne	.L21
  57:main.c        ****         
 287              		.loc 1 57 0 is_stmt 0 discriminator 1
 288 0040 0020     		movs	r0, #0
 289 0042 FFF7FEFF 		bl	ROW_3_Write
 290              	.LVL30:
 291              	.L21:
  59:main.c        ****       
 292              		.loc 1 59 0 is_stmt 1
 293 0046 3220     		movs	r0, #50
 294 0048 FFF7FEFF 		bl	CyDelayUs
 295              	.LVL31:
  61:main.c        ****         if (COLUMN_1_Read() == 0) return keyMap[row][1];
 296              		.loc 1 61 0
 297 004c FFF7FEFF 		bl	COLUMN_0_Read
 298              	.LVL32:
 299 0050 0028     		cmp	r0, #0
 300 0052 05D1     		bne	.L22
  61:main.c        ****         if (COLUMN_1_Read() == 0) return keyMap[row][1];
ARM GAS  C:\Users\statm\AppData\Local\Temp\ccrjYWV9.s 			page 8


 301              		.loc 1 61 0 is_stmt 0 discriminator 1
 302 0054 6300     		lsls	r3, r4, #1
 303 0056 1C19     		adds	r4, r3, r4
 304              	.LVL33:
 305 0058 0E4B     		ldr	r3, .L27
 306 005a 1C19     		adds	r4, r3, r4
 307 005c 207F     		ldrb	r0, [r4, #28]
 308 005e 18E0     		b	.L23
 309              	.LVL34:
 310              	.L22:
  62:main.c        ****         if (COLUMN_2_Read() == 0) return keyMap[row][2];
 311              		.loc 1 62 0 is_stmt 1
 312 0060 FFF7FEFF 		bl	COLUMN_1_Read
 313              	.LVL35:
 314 0064 0028     		cmp	r0, #0
 315 0066 05D1     		bne	.L24
  62:main.c        ****         if (COLUMN_2_Read() == 0) return keyMap[row][2];
 316              		.loc 1 62 0 is_stmt 0 discriminator 1
 317 0068 6300     		lsls	r3, r4, #1
 318 006a 1C19     		adds	r4, r3, r4
 319              	.LVL36:
 320 006c 094B     		ldr	r3, .L27
 321 006e 1C19     		adds	r4, r3, r4
 322 0070 607F     		ldrb	r0, [r4, #29]
 323 0072 0EE0     		b	.L23
 324              	.LVL37:
 325              	.L24:
  63:main.c        ****     }
 326              		.loc 1 63 0 is_stmt 1
 327 0074 FFF7FEFF 		bl	COLUMN_2_Read
 328              	.LVL38:
 329 0078 0028     		cmp	r0, #0
 330 007a 05D1     		bne	.L25
  63:main.c        ****     }
 331              		.loc 1 63 0 is_stmt 0 discriminator 1
 332 007c 6300     		lsls	r3, r4, #1
 333 007e 1C19     		adds	r4, r3, r4
 334              	.LVL39:
 335 0080 044B     		ldr	r3, .L27
 336 0082 1C19     		adds	r4, r3, r4
 337 0084 A07F     		ldrb	r0, [r4, #30]
 338 0086 04E0     		b	.L23
 339              	.LVL40:
 340              	.L25:
  48:main.c        ****         ROW_0_Write(1); 
 341              		.loc 1 48 0 is_stmt 1 discriminator 2
 342 0088 0134     		adds	r4, r4, #1
 343              	.LVL41:
 344 008a E4B2     		uxtb	r4, r4
 345              	.LVL42:
 346              	.L17:
  48:main.c        ****         ROW_0_Write(1); 
 347              		.loc 1 48 0 is_stmt 0 discriminator 1
 348 008c 032C     		cmp	r4, #3
 349 008e BAD9     		bls	.L26
  65:main.c        **** }
 350              		.loc 1 65 0 is_stmt 1
ARM GAS  C:\Users\statm\AppData\Local\Temp\ccrjYWV9.s 			page 9


 351 0090 FF20     		movs	r0, #255
 352              	.LVL43:
 353              	.L23:
  66:main.c        **** 
 354              		.loc 1 66 0
 355              		@ sp needed
 356 0092 10BD     		pop	{r4, pc}
 357              	.L28:
 358              		.align	2
 359              	.L27:
 360 0094 00000000 		.word	.LANCHOR0
 361              		.cfi_endproc
 362              	.LFE34:
 363              		.size	ScanMatrixKeypad, .-ScanMatrixKeypad
 364              		.section	.text.main,"ax",%progbits
 365              		.align	2
 366              		.global	main
 367              		.code	16
 368              		.thumb_func
 369              		.type	main, %function
 370              	main:
 371              	.LFB36:
  81:main.c        **** 
  82:main.c        **** int main(void)
  83:main.c        **** {
 372              		.loc 1 83 0
 373              		.cfi_startproc
 374              		@ Volatile: function does not return.
 375              		@ args = 0, pretend = 0, frame = 0
 376              		@ frame_needed = 0, uses_anonymous_args = 0
 377 0000 10B5     		push	{r4, lr}
 378              		.cfi_def_cfa_offset 8
 379              		.cfi_offset 4, -8
 380              		.cfi_offset 14, -4
  84:main.c        ****     CyGlobalIntEnable;
 381              		.loc 1 84 0
 382              		.syntax divided
 383              	@ 84 "main.c" 1
 384 0002 62B6     		CPSIE   i
 385              	@ 0 "" 2
  85:main.c        **** 
  86:main.c        ****     // Запускаємо таймер
  87:main.c        ****     Timer_Start();
 386              		.loc 1 87 0
 387              		.thumb
 388              		.syntax unified
 389 0004 FFF7FEFF 		bl	Timer_Start
 390              	.LVL44:
  88:main.c        ****     
  89:main.c        ****     // Запускаємо обробник переривання
  90:main.c        ****     Timer_Int_StartEx(Timer_Int_Handler2);
 391              		.loc 1 90 0
 392 0008 0148     		ldr	r0, .L31
 393 000a FFF7FEFF 		bl	Timer_Int_StartEx
 394              	.LVL45:
 395              	.L30:
 396 000e FEE7     		b	.L30
ARM GAS  C:\Users\statm\AppData\Local\Temp\ccrjYWV9.s 			page 10


 397              	.L32:
 398              		.align	2
 399              	.L31:
 400 0010 00000000 		.word	Timer_Int_Handler2
 401              		.cfi_endproc
 402              	.LFE36:
 403              		.size	main, .-main
 404              		.global	keyMap
 405              		.section	.rodata
 406              		.align	2
 407              		.set	.LANCHOR0,. + 0
 408              		.type	LED_NUM, %object
 409              		.size	LED_NUM, 18
 410              	LED_NUM:
 411 0000 C0       		.byte	-64
 412 0001 F9       		.byte	-7
 413 0002 A4       		.byte	-92
 414 0003 B0       		.byte	-80
 415 0004 99       		.byte	-103
 416 0005 92       		.byte	-110
 417 0006 82       		.byte	-126
 418 0007 F8       		.byte	-8
 419 0008 80       		.byte	-128
 420 0009 90       		.byte	-112
 421 000a BF       		.byte	-65
 422 000b 88       		.byte	-120
 423 000c 83       		.byte	-125
 424 000d C6       		.byte	-58
 425 000e A1       		.byte	-95
 426 000f 86       		.byte	-122
 427 0010 8E       		.byte	-114
 428 0011 7F       		.byte	127
 429 0012 0000     		.space	2
 430              	.LC0:
 431 0014 07       		.byte	7
 432 0015 06       		.byte	6
 433 0016 05       		.byte	5
 434 0017 04       		.byte	4
 435 0018 03       		.byte	3
 436 0019 02       		.byte	2
 437 001a 01       		.byte	1
 438 001b 00       		.byte	0
 439              		.type	keyMap, %object
 440              		.size	keyMap, 12
 441              	keyMap:
 442 001c 01       		.byte	1
 443 001d 02       		.byte	2
 444 001e 03       		.byte	3
 445 001f 04       		.byte	4
 446 0020 05       		.byte	5
 447 0021 06       		.byte	6
 448 0022 07       		.byte	7
 449 0023 08       		.byte	8
 450 0024 09       		.byte	9
 451 0025 0A       		.byte	10
 452 0026 00       		.byte	0
 453 0027 0B       		.byte	11
ARM GAS  C:\Users\statm\AppData\Local\Temp\ccrjYWV9.s 			page 11


 454              		.bss
 455              		.set	.LANCHOR1,. + 0
 456              		.type	led_counter, %object
 457              		.size	led_counter, 1
 458              	led_counter:
 459 0000 00       		.space	1
 460              		.text
 461              	.Letext0:
 462              		.file 2 "e:\\psoc creator\\4.4\\psoc creator\\import\\gnu\\arm\\5.4.1\\arm-none-eabi\\include\\mac
 463              		.file 3 "e:\\psoc creator\\4.4\\psoc creator\\import\\gnu\\arm\\5.4.1\\arm-none-eabi\\include\\sys
 464              		.file 4 "Generated_Source\\PSoC4/Pin_DO.h"
 465              		.file 5 "Generated_Source\\PSoC4/Pin_CLK.h"
 466              		.file 6 "Generated_Source\\PSoC4/Pin_Latch.h"
 467              		.file 7 "Generated_Source\\PSoC4/ROW_0.h"
 468              		.file 8 "Generated_Source\\PSoC4/ROW_1.h"
 469              		.file 9 "Generated_Source\\PSoC4/ROW_2.h"
 470              		.file 10 "Generated_Source\\PSoC4/ROW_3.h"
 471              		.file 11 "Generated_Source\\PSoC4/CyLib.h"
 472              		.file 12 "Generated_Source\\PSoC4/COLUMN_0.h"
 473              		.file 13 "Generated_Source\\PSoC4/COLUMN_1.h"
 474              		.file 14 "Generated_Source\\PSoC4/COLUMN_2.h"
 475              		.file 15 "Generated_Source\\PSoC4/Timer.h"
 476              		.file 16 "Generated_Source\\PSoC4/Timer_Int.h"