ARM GAS  C:\Users\statm\AppData\Local\Temp\ccg3ctaV.s 			page 1


   1              		.syntax unified
   2              		.cpu cortex-m0
   3              		.fpu softvfp
   4              		.eabi_attribute 20, 1
   5              		.eabi_attribute 21, 1
   6              		.eabi_attribute 23, 3
   7              		.eabi_attribute 24, 1
   8              		.eabi_attribute 25, 1
   9              		.eabi_attribute 26, 1
  10              		.eabi_attribute 30, 1
  11              		.eabi_attribute 34, 0
  12              		.eabi_attribute 18, 4
  13              		.thumb
  14              		.syntax unified
  15              		.file	"main.c"
  16              		.text
  17              	.Ltext0:
  18              		.cfi_sections	.debug_frame
  19              		.section	.text.FourDigit74HC595_sendData,"ax",%progbits
  20              		.align	2
  21              		.code	16
  22              		.thumb_func
  23              		.type	FourDigit74HC595_sendData, %function
  24              	FourDigit74HC595_sendData:
  25              	.LFB32:
  26              		.file 1 "main.c"
   1:main.c        **** #include "project.h"
   2:main.c        **** 
   3:main.c        **** static uint8_t LED_NUM[] = {
   4:main.c        ****     0xC0, 0xF9, 0xA4, 0xB0, 0x99, 0x92, 0x82, 0xF8, 
   5:main.c        ****     0x80, 0x90, 0xBF, 0x88, 0x83, 0xC6, 0xA1, 0x86, 
   6:main.c        ****     0x8E, 0x7F
   7:main.c        **** };
   8:main.c        **** 
   9:main.c        **** static void FourDigit74HC595_sendData(uint8_t data) {
  27              		.loc 1 9 0
  28              		.cfi_startproc
  29              		@ args = 0, pretend = 0, frame = 0
  30              		@ frame_needed = 0, uses_anonymous_args = 0
  31              	.LVL0:
  32 0000 70B5     		push	{r4, r5, r6, lr}
  33              		.cfi_def_cfa_offset 16
  34              		.cfi_offset 4, -16
  35              		.cfi_offset 5, -12
  36              		.cfi_offset 6, -8
  37              		.cfi_offset 14, -4
  38 0002 0500     		movs	r5, r0
  39              	.LVL1:
  40              	.LBB2:
  10:main.c        ****     for (uint8_t i = 0; i < 8; i++) {
  41              		.loc 1 10 0
  42 0004 0024     		movs	r4, #0
  43 0006 12E0     		b	.L2
  44              	.LVL2:
  45              	.L5:
  11:main.c        ****         if (data & (0x80 >> i)) {
  46              		.loc 1 11 0
ARM GAS  C:\Users\statm\AppData\Local\Temp\ccg3ctaV.s 			page 2


  47 0008 8023     		movs	r3, #128
  48 000a 2341     		asrs	r3, r3, r4
  49 000c 2B42     		tst	r3, r5
  50 000e 03D0     		beq	.L3
  12:main.c        ****             Pin_DO_Write(1);
  51              		.loc 1 12 0
  52 0010 0120     		movs	r0, #1
  53 0012 FFF7FEFF 		bl	Pin_DO_Write
  54              	.LVL3:
  55 0016 02E0     		b	.L4
  56              	.L3:
  13:main.c        ****         } else {
  14:main.c        ****             Pin_DO_Write(0);
  57              		.loc 1 14 0
  58 0018 0020     		movs	r0, #0
  59 001a FFF7FEFF 		bl	Pin_DO_Write
  60              	.LVL4:
  61              	.L4:
  15:main.c        ****         }
  16:main.c        ****         Pin_CLK_Write(1);
  62              		.loc 1 16 0 discriminator 2
  63 001e 0120     		movs	r0, #1
  64 0020 FFF7FEFF 		bl	Pin_CLK_Write
  65              	.LVL5:
  17:main.c        ****         Pin_CLK_Write(0);
  66              		.loc 1 17 0 discriminator 2
  67 0024 0020     		movs	r0, #0
  68 0026 FFF7FEFF 		bl	Pin_CLK_Write
  69              	.LVL6:
  10:main.c        ****         if (data & (0x80 >> i)) {
  70              		.loc 1 10 0 discriminator 2
  71 002a 0134     		adds	r4, r4, #1
  72              	.LVL7:
  73 002c E4B2     		uxtb	r4, r4
  74              	.LVL8:
  75              	.L2:
  10:main.c        ****         if (data & (0x80 >> i)) {
  76              		.loc 1 10 0 is_stmt 0 discriminator 1
  77 002e 072C     		cmp	r4, #7
  78 0030 EAD9     		bls	.L5
  79              	.LBE2:
  18:main.c        ****     }
  19:main.c        **** }
  80              		.loc 1 19 0 is_stmt 1
  81              		@ sp needed
  82              	.LVL9:
  83 0032 70BD     		pop	{r4, r5, r6, pc}
  84              		.cfi_endproc
  85              	.LFE32:
  86              		.size	FourDigit74HC595_sendData, .-FourDigit74HC595_sendData
  87              		.section	.text.FourDigit74HC595_sendOneDigit,"ax",%progbits
  88              		.align	2
  89              		.code	16
  90              		.thumb_func
  91              		.type	FourDigit74HC595_sendOneDigit, %function
  92              	FourDigit74HC595_sendOneDigit:
  93              	.LFB33:
ARM GAS  C:\Users\statm\AppData\Local\Temp\ccg3ctaV.s 			page 3


  20:main.c        **** 
  21:main.c        **** static void FourDigit74HC595_sendOneDigit(uint8_t position, uint8_t digit, uint8_t dot) {
  94              		.loc 1 21 0
  95              		.cfi_startproc
  96              		@ args = 0, pretend = 0, frame = 0
  97              		@ frame_needed = 0, uses_anonymous_args = 0
  98              	.LVL10:
  99 0000 70B5     		push	{r4, r5, r6, lr}
 100              		.cfi_def_cfa_offset 16
 101              		.cfi_offset 4, -16
 102              		.cfi_offset 5, -12
 103              		.cfi_offset 6, -8
 104              		.cfi_offset 14, -4
 105 0002 0400     		movs	r4, r0
 106 0004 0D00     		movs	r5, r1
 107 0006 1600     		movs	r6, r2
  22:main.c        ****     if (position >= 8) {
 108              		.loc 1 22 0
 109 0008 0728     		cmp	r0, #7
 110 000a 05D9     		bls	.L7
  23:main.c        ****         FourDigit74HC595_sendData(0xFF);
 111              		.loc 1 23 0
 112 000c FF20     		movs	r0, #255
 113              	.LVL11:
 114 000e FFF7FEFF 		bl	FourDigit74HC595_sendData
 115              	.LVL12:
  24:main.c        ****         FourDigit74HC595_sendData(0xFF);
 116              		.loc 1 24 0
 117 0012 FF20     		movs	r0, #255
 118 0014 FFF7FEFF 		bl	FourDigit74HC595_sendData
 119              	.LVL13:
 120              	.L7:
  25:main.c        ****     }
  26:main.c        ****     
  27:main.c        ****     FourDigit74HC595_sendData(0xFF & ~(1 << position));
 121              		.loc 1 27 0
 122 0018 0120     		movs	r0, #1
 123 001a A040     		lsls	r0, r0, r4
 124 001c C043     		mvns	r0, r0
 125 001e C0B2     		uxtb	r0, r0
 126 0020 FFF7FEFF 		bl	FourDigit74HC595_sendData
 127              	.LVL14:
  28:main.c        ****     
  29:main.c        ****     if (dot) {
 128              		.loc 1 29 0
 129 0024 002E     		cmp	r6, #0
 130 0026 06D0     		beq	.L8
  30:main.c        ****         FourDigit74HC595_sendData(LED_NUM[digit] & 0x7F);
 131              		.loc 1 30 0
 132 0028 084B     		ldr	r3, .L10
 133 002a 5B5D     		ldrb	r3, [r3, r5]
 134 002c 7F20     		movs	r0, #127
 135 002e 1840     		ands	r0, r3
 136 0030 FFF7FEFF 		bl	FourDigit74HC595_sendData
 137              	.LVL15:
 138 0034 03E0     		b	.L9
 139              	.L8:
ARM GAS  C:\Users\statm\AppData\Local\Temp\ccg3ctaV.s 			page 4


  31:main.c        ****     } else {
  32:main.c        ****         FourDigit74HC595_sendData(LED_NUM[digit]);
 140              		.loc 1 32 0
 141 0036 054B     		ldr	r3, .L10
 142 0038 585D     		ldrb	r0, [r3, r5]
 143 003a FFF7FEFF 		bl	FourDigit74HC595_sendData
 144              	.LVL16:
 145              	.L9:
  33:main.c        ****     }
  34:main.c        ****     
  35:main.c        ****     Pin_Latch_Write(1);
 146              		.loc 1 35 0
 147 003e 0120     		movs	r0, #1
 148 0040 FFF7FEFF 		bl	Pin_Latch_Write
 149              	.LVL17:
  36:main.c        ****     Pin_Latch_Write(0);
 150              		.loc 1 36 0
 151 0044 0020     		movs	r0, #0
 152 0046 FFF7FEFF 		bl	Pin_Latch_Write
 153              	.LVL18:
  37:main.c        **** }
 154              		.loc 1 37 0
 155              		@ sp needed
 156 004a 70BD     		pop	{r4, r5, r6, pc}
 157              	.L11:
 158              		.align	2
 159              	.L10:
 160 004c 00000000 		.word	.LANCHOR0
 161              		.cfi_endproc
 162              	.LFE33:
 163              		.size	FourDigit74HC595_sendOneDigit, .-FourDigit74HC595_sendOneDigit
 164              		.section	.text.ScanMatrixKeypad,"ax",%progbits
 165              		.align	2
 166              		.global	ScanMatrixKeypad
 167              		.code	16
 168              		.thumb_func
 169              		.type	ScanMatrixKeypad, %function
 170              	ScanMatrixKeypad:
 171              	.LFB34:
  38:main.c        **** 
  39:main.c        **** const uint8_t keyMap[4][3] = {
  40:main.c        ****     {1, 2, 3},
  41:main.c        ****     {4, 5, 6},
  42:main.c        ****     {7, 8, 9},
  43:main.c        ****     {10, 0, 11} 
  44:main.c        **** };
  45:main.c        **** 
  46:main.c        **** uint8_t ScanMatrixKeypad(void) {
 172              		.loc 1 46 0
 173              		.cfi_startproc
 174              		@ args = 0, pretend = 0, frame = 0
 175              		@ frame_needed = 0, uses_anonymous_args = 0
 176 0000 10B5     		push	{r4, lr}
 177              		.cfi_def_cfa_offset 8
 178              		.cfi_offset 4, -8
 179              		.cfi_offset 14, -4
 180              	.LVL19:
ARM GAS  C:\Users\statm\AppData\Local\Temp\ccg3ctaV.s 			page 5


  47:main.c        ****     uint8_t row;
  48:main.c        ****     
  49:main.c        ****     for (row = 0; row < 4; row++) {
 181              		.loc 1 49 0
 182 0002 0024     		movs	r4, #0
 183 0004 42E0     		b	.L13
 184              	.LVL20:
 185              	.L22:
  50:main.c        ****         ROW_0_Write(1); 
 186              		.loc 1 50 0
 187 0006 0120     		movs	r0, #1
 188 0008 FFF7FEFF 		bl	ROW_0_Write
 189              	.LVL21:
  51:main.c        ****         ROW_1_Write(1); 
 190              		.loc 1 51 0
 191 000c 0120     		movs	r0, #1
 192 000e FFF7FEFF 		bl	ROW_1_Write
 193              	.LVL22:
  52:main.c        ****         ROW_2_Write(1); 
 194              		.loc 1 52 0
 195 0012 0120     		movs	r0, #1
 196 0014 FFF7FEFF 		bl	ROW_2_Write
 197              	.LVL23:
  53:main.c        ****         ROW_3_Write(1);
 198              		.loc 1 53 0
 199 0018 0120     		movs	r0, #1
 200 001a FFF7FEFF 		bl	ROW_3_Write
 201              	.LVL24:
  54:main.c        ****         
  55:main.c        ****         if(row == 0) ROW_0_Write(0);
 202              		.loc 1 55 0
 203 001e 002C     		cmp	r4, #0
 204 0020 02D1     		bne	.L14
 205              		.loc 1 55 0 is_stmt 0 discriminator 1
 206 0022 0020     		movs	r0, #0
 207 0024 FFF7FEFF 		bl	ROW_0_Write
 208              	.LVL25:
 209              	.L14:
  56:main.c        ****         if(row == 1) ROW_1_Write(0);
 210              		.loc 1 56 0 is_stmt 1
 211 0028 012C     		cmp	r4, #1
 212 002a 02D1     		bne	.L15
 213              		.loc 1 56 0 is_stmt 0 discriminator 1
 214 002c 0020     		movs	r0, #0
 215 002e FFF7FEFF 		bl	ROW_1_Write
 216              	.LVL26:
 217              	.L15:
  57:main.c        ****         if(row == 2) ROW_2_Write(0);
 218              		.loc 1 57 0 is_stmt 1
 219 0032 022C     		cmp	r4, #2
 220 0034 02D1     		bne	.L16
 221              		.loc 1 57 0 is_stmt 0 discriminator 1
 222 0036 0020     		movs	r0, #0
 223 0038 FFF7FEFF 		bl	ROW_2_Write
 224              	.LVL27:
 225              	.L16:
  58:main.c        ****         if(row == 3) ROW_3_Write(0);
ARM GAS  C:\Users\statm\AppData\Local\Temp\ccg3ctaV.s 			page 6


 226              		.loc 1 58 0 is_stmt 1
 227 003c 032C     		cmp	r4, #3
 228 003e 02D1     		bne	.L17
 229              		.loc 1 58 0 is_stmt 0 discriminator 1
 230 0040 0020     		movs	r0, #0
 231 0042 FFF7FEFF 		bl	ROW_3_Write
 232              	.LVL28:
 233              	.L17:
  59:main.c        ****         
  60:main.c        ****         CyDelayUs(50);
 234              		.loc 1 60 0 is_stmt 1
 235 0046 3220     		movs	r0, #50
 236 0048 FFF7FEFF 		bl	CyDelayUs
 237              	.LVL29:
  61:main.c        ****       
  62:main.c        ****         if (COLUMN_0_Read() == 0) return keyMap[row][0];
 238              		.loc 1 62 0
 239 004c FFF7FEFF 		bl	COLUMN_0_Read
 240              	.LVL30:
 241 0050 0028     		cmp	r0, #0
 242 0052 05D1     		bne	.L18
 243              		.loc 1 62 0 is_stmt 0 discriminator 1
 244 0054 6300     		lsls	r3, r4, #1
 245 0056 1C19     		adds	r4, r3, r4
 246              	.LVL31:
 247 0058 0E4B     		ldr	r3, .L23
 248 005a 1C19     		adds	r4, r3, r4
 249 005c 207D     		ldrb	r0, [r4, #20]
 250 005e 18E0     		b	.L19
 251              	.LVL32:
 252              	.L18:
  63:main.c        ****         if (COLUMN_1_Read() == 0) return keyMap[row][1];
 253              		.loc 1 63 0 is_stmt 1
 254 0060 FFF7FEFF 		bl	COLUMN_1_Read
 255              	.LVL33:
 256 0064 0028     		cmp	r0, #0
 257 0066 05D1     		bne	.L20
 258              		.loc 1 63 0 is_stmt 0 discriminator 1
 259 0068 6300     		lsls	r3, r4, #1
 260 006a 1C19     		adds	r4, r3, r4
 261              	.LVL34:
 262 006c 094B     		ldr	r3, .L23
 263 006e 1C19     		adds	r4, r3, r4
 264 0070 607D     		ldrb	r0, [r4, #21]
 265 0072 0EE0     		b	.L19
 266              	.LVL35:
 267              	.L20:
  64:main.c        ****         if (COLUMN_2_Read() == 0) return keyMap[row][2];
 268              		.loc 1 64 0 is_stmt 1
 269 0074 FFF7FEFF 		bl	COLUMN_2_Read
 270              	.LVL36:
 271 0078 0028     		cmp	r0, #0
 272 007a 05D1     		bne	.L21
 273              		.loc 1 64 0 is_stmt 0 discriminator 1
 274 007c 6300     		lsls	r3, r4, #1
 275 007e 1C19     		adds	r4, r3, r4
 276              	.LVL37:
ARM GAS  C:\Users\statm\AppData\Local\Temp\ccg3ctaV.s 			page 7


 277 0080 044B     		ldr	r3, .L23
 278 0082 1C19     		adds	r4, r3, r4
 279 0084 A07D     		ldrb	r0, [r4, #22]
 280 0086 04E0     		b	.L19
 281              	.LVL38:
 282              	.L21:
  49:main.c        ****         ROW_0_Write(1); 
 283              		.loc 1 49 0 is_stmt 1 discriminator 2
 284 0088 0134     		adds	r4, r4, #1
 285              	.LVL39:
 286 008a E4B2     		uxtb	r4, r4
 287              	.LVL40:
 288              	.L13:
  49:main.c        ****         ROW_0_Write(1); 
 289              		.loc 1 49 0 is_stmt 0 discriminator 1
 290 008c 032C     		cmp	r4, #3
 291 008e BAD9     		bls	.L22
  65:main.c        ****     }
  66:main.c        ****     
  67:main.c        ****     return 0xFF; 
 292              		.loc 1 67 0 is_stmt 1
 293 0090 FF20     		movs	r0, #255
 294              	.LVL41:
 295              	.L19:
  68:main.c        **** }
 296              		.loc 1 68 0
 297              		@ sp needed
 298 0092 10BD     		pop	{r4, pc}
 299              	.L24:
 300              		.align	2
 301              	.L23:
 302 0094 00000000 		.word	.LANCHOR0
 303              		.cfi_endproc
 304              	.LFE34:
 305              		.size	ScanMatrixKeypad, .-ScanMatrixKeypad
 306              		.section	.text.main,"ax",%progbits
 307              		.align	2
 308              		.global	main
 309              		.code	16
 310              		.thumb_func
 311              		.type	main, %function
 312              	main:
 313              	.LFB35:
  69:main.c        **** 
  70:main.c        **** int main(void) {
 314              		.loc 1 70 0
 315              		.cfi_startproc
 316              		@ args = 0, pretend = 0, frame = 0
 317              		@ frame_needed = 0, uses_anonymous_args = 0
 318 0000 70B5     		push	{r4, r5, r6, lr}
 319              		.cfi_def_cfa_offset 16
 320              		.cfi_offset 4, -16
 321              		.cfi_offset 5, -12
 322              		.cfi_offset 6, -8
 323              		.cfi_offset 14, -4
  71:main.c        ****     CyGlobalIntEnable; 
 324              		.loc 1 71 0
ARM GAS  C:\Users\statm\AppData\Local\Temp\ccg3ctaV.s 			page 8


 325              		.syntax divided
 326              	@ 71 "main.c" 1
 327 0002 62B6     		CPSIE   i
 328              	@ 0 "" 2
 329              	.LVL42:
  72:main.c        **** 
  73:main.c        ****     uint8_t currentSymbol = 0; 
 330              		.loc 1 73 0
 331              		.thumb
 332              		.syntax unified
 333 0004 0025     		movs	r5, #0
 334              	.LVL43:
 335              	.L27:
 336              	.LBB3:
  74:main.c        **** 
  75:main.c        ****     for(;;) {
  76:main.c        ****         uint8_t pressedKey = ScanMatrixKeypad(); 
 337              		.loc 1 76 0
 338 0006 FFF7FEFF 		bl	ScanMatrixKeypad
 339              	.LVL44:
 340 000a 0400     		movs	r4, r0
 341              	.LVL45:
  77:main.c        **** 
  78:main.c        ****         if (pressedKey != 0xFF) {
 342              		.loc 1 78 0
 343 000c FF28     		cmp	r0, #255
 344 000e 00D1     		bne	.L26
 345 0010 2C00     		movs	r4, r5
 346              	.L26:
 347              	.LVL46:
  79:main.c        ****             currentSymbol = pressedKey;
  80:main.c        ****         }
  81:main.c        **** 
  82:main.c        ****         FourDigit74HC595_sendOneDigit(0, currentSymbol, 0);
 348              		.loc 1 82 0
 349 0012 0022     		movs	r2, #0
 350 0014 2100     		movs	r1, r4
 351 0016 0020     		movs	r0, #0
 352              	.LVL47:
 353 0018 FFF7FEFF 		bl	FourDigit74HC595_sendOneDigit
 354              	.LVL48:
  83:main.c        ****         CyDelay(2); 
 355              		.loc 1 83 0
 356 001c 0220     		movs	r0, #2
 357 001e FFF7FEFF 		bl	CyDelay
 358              	.LVL49:
 359              	.LBE3:
  84:main.c        ****     }
 360              		.loc 1 84 0
 361 0022 2500     		movs	r5, r4
 362 0024 EFE7     		b	.L27
 363              		.cfi_endproc
 364              	.LFE35:
 365              		.size	main, .-main
 366              		.global	keyMap
 367 0026 C046     		.section	.rodata
 368              		.align	2
ARM GAS  C:\Users\statm\AppData\Local\Temp\ccg3ctaV.s 			page 9


 369              		.set	.LANCHOR0,. + 0
 370              		.type	LED_NUM, %object
 371              		.size	LED_NUM, 18
 372              	LED_NUM:
 373 0000 C0       		.byte	-64
 374 0001 F9       		.byte	-7
 375 0002 A4       		.byte	-92
 376 0003 B0       		.byte	-80
 377 0004 99       		.byte	-103
 378 0005 92       		.byte	-110
 379 0006 82       		.byte	-126
 380 0007 F8       		.byte	-8
 381 0008 80       		.byte	-128
 382 0009 90       		.byte	-112
 383 000a BF       		.byte	-65
 384 000b 88       		.byte	-120
 385 000c 83       		.byte	-125
 386 000d C6       		.byte	-58
 387 000e A1       		.byte	-95
 388 000f 86       		.byte	-122
 389 0010 8E       		.byte	-114
 390 0011 7F       		.byte	127
 391 0012 0000     		.space	2
 392              		.type	keyMap, %object
 393              		.size	keyMap, 12
 394              	keyMap:
 395 0014 01       		.byte	1
 396 0015 02       		.byte	2
 397 0016 03       		.byte	3
 398 0017 04       		.byte	4
 399 0018 05       		.byte	5
 400 0019 06       		.byte	6
 401 001a 07       		.byte	7
 402 001b 08       		.byte	8
 403 001c 09       		.byte	9
 404 001d 0A       		.byte	10
 405 001e 00       		.byte	0
 406 001f 0B       		.byte	11
 407              		.text
 408              	.Letext0:
 409              		.file 2 "e:\\psoc creator\\4.4\\psoc creator\\import\\gnu\\arm\\5.4.1\\arm-none-eabi\\include\\mac
 410              		.file 3 "e:\\psoc creator\\4.4\\psoc creator\\import\\gnu\\arm\\5.4.1\\arm-none-eabi\\include\\sys
 411              		.file 4 "Generated_Source\\PSoC4/Pin_DO.h"
 412              		.file 5 "Generated_Source\\PSoC4/Pin_CLK.h"
 413              		.file 6 "Generated_Source\\PSoC4/Pin_Latch.h"
 414              		.file 7 "Generated_Source\\PSoC4/ROW_0.h"
 415              		.file 8 "Generated_Source\\PSoC4/ROW_1.h"
 416              		.file 9 "Generated_Source\\PSoC4/ROW_2.h"
 417              		.file 10 "Generated_Source\\PSoC4/ROW_3.h"
 418              		.file 11 "Generated_Source\\PSoC4/CyLib.h"
 419              		.file 12 "Generated_Source\\PSoC4/COLUMN_0.h"
 420              		.file 13 "Generated_Source\\PSoC4/COLUMN_1.h"
 421              		.file 14 "Generated_Source\\PSoC4/COLUMN_2.h"